subject	activity	timefreq	acceleration	instrument	jerk	magnitude	variable	axis	count	average
1	1	LAYING	time	NA	gyroscope	NA	NA	mean	X	347	-0.011263387782853
2	1	LAYING	time	NA	gyroscope	NA	NA	mean	Y	347	-0.0873609801685879
3	1	LAYING	time	NA	gyroscope	NA	NA	mean	Z	347	0.155017599440922
4	1	LAYING	time	NA	gyroscope	NA	NA	std	X	347	-0.954608505795389
5	1	LAYING	time	NA	gyroscope	NA	NA	std	Y	347	-0.959759286455331
6	1	LAYING	time	NA	gyroscope	NA	NA	std	Z	347	-0.949695513861671
7	1	LAYING	time	NA	gyroscope	NA	magnitude	mean	NA	347	-0.922435183429395
8	1	LAYING	time	NA	gyroscope	NA	magnitude	std	NA	347	-0.920995947861671
9	1	LAYING	time	NA	gyroscope	jerk	NA	mean	X	347	-0.10533923821268
10	1	LAYING	time	NA	gyroscope	jerk	NA	mean	Y	347	-0.0401131258079539
11	1	LAYING	time	NA	gyroscope	jerk	NA	mean	Z	347	-0.0707131219855908
12	1	LAYING	time	NA	gyroscope	jerk	NA	std	X	347	-0.96330713204611
13	1	LAYING	time	NA	gyroscope	jerk	NA	std	Y	347	-0.975990298357349
14	1	LAYING	time	NA	gyroscope	jerk	NA	std	Z	347	-0.978585248818444
15	1	LAYING	time	NA	gyroscope	jerk	magnitude	mean	NA	347	-0.976887316974063
16	1	LAYING	time	NA	gyroscope	jerk	magnitude	std	NA	347	-0.968053833602305
17	1	LAYING	time	body	accelerometer	NA	NA	mean	X	347	0.258226987325648
18	1	LAYING	time	body	accelerometer	NA	NA	mean	Y	347	-0.0210779956418732
19	1	LAYING	time	body	accelerometer	NA	NA	mean	Z	347	-0.109819135312392
20	1	LAYING	time	body	accelerometer	NA	NA	std	X	347	-0.951346005466859
21	1	LAYING	time	body	accelerometer	NA	NA	std	Y	347	-0.930493632838617
22	1	LAYING	time	body	accelerometer	NA	NA	std	Z	347	-0.932527973456484
23	1	LAYING	time	body	accelerometer	NA	magnitude	mean	NA	347	-0.933474510582133
24	1	LAYING	time	body	accelerometer	NA	magnitude	std	NA	347	-0.91229495414121
25	1	LAYING	time	body	accelerometer	jerk	NA	mean	X	347	0.0865669830461095
26	1	LAYING	time	body	accelerometer	jerk	NA	mean	Y	347	0.0120052641926225
27	1	LAYING	time	body	accelerometer	jerk	NA	mean	Z	347	-0.00341897261703314
28	1	LAYING	time	body	accelerometer	jerk	NA	std	X	347	-0.975068620259366
29	1	LAYING	time	body	accelerometer	jerk	NA	std	Y	347	-0.958747079423631
30	1	LAYING	time	body	accelerometer	jerk	NA	std	Z	347	-0.971511429654179
31	1	LAYING	time	body	accelerometer	jerk	magnitude	mean	NA	347	-0.971665631527378
32	1	LAYING	time	body	accelerometer	jerk	magnitude	std	NA	347	-0.962508822564841
33	1	LAYING	time	gravity	accelerometer	NA	NA	mean	X	347	-0.375965379838617
34	1	LAYING	time	gravity	accelerometer	NA	NA	mean	Y	347	0.75608603343804
35	1	LAYING	time	gravity	accelerometer	NA	NA	mean	Z	347	0.478456851366571
36	1	LAYING	time	gravity	accelerometer	NA	NA	std	X	347	-0.928315025190202
37	1	LAYING	time	gravity	accelerometer	NA	NA	std	Y	347	-0.960663374662824
38	1	LAYING	time	gravity	accelerometer	NA	NA	std	Z	347	-0.941260598567723
39	1	LAYING	time	gravity	accelerometer	NA	magnitude	mean	NA	347	-0.933474510582133
40	1	LAYING	time	gravity	accelerometer	NA	magnitude	std	NA	347	-0.91229495414121
41	1	LAYING	freq	NA	gyroscope	NA	NA	mean	X	347	-0.94443789394611
42	1	LAYING	freq	NA	gyroscope	NA	NA	mean	Y	347	-0.962713147435159
43	1	LAYING	freq	NA	gyroscope	NA	NA	mean	Z	347	-0.949472632017291
44	1	LAYING	freq	NA	gyroscope	NA	NA	std	X	347	-0.958199386570605
45	1	LAYING	freq	NA	gyroscope	NA	NA	std	Y	347	-0.958863161786744
46	1	LAYING	freq	NA	gyroscope	NA	NA	std	Z	347	-0.954472353976945
47	1	LAYING	freq	NA	gyroscope	NA	magnitude	mean	NA	347	-0.938331539538905
48	1	LAYING	freq	NA	gyroscope	NA	magnitude	std	NA	347	-0.923984253757925
49	1	LAYING	freq	NA	gyroscope	jerk	magnitude	mean	NA	347	-0.969814180576369
50	1	LAYING	freq	NA	gyroscope	jerk	magnitude	std	NA	347	-0.967936800461095
51	1	LAYING	freq	body	accelerometer	NA	NA	mean	X	347	-0.958074932824207
52	1	LAYING	freq	body	accelerometer	NA	NA	mean	Y	347	-0.938996381322767
53	1	LAYING	freq	body	accelerometer	NA	NA	mean	Z	347	-0.947792665994236
54	1	LAYING	freq	body	accelerometer	NA	NA	std	X	347	-0.949282575686744
55	1	LAYING	freq	body	accelerometer	NA	NA	std	Y	347	-0.930711103276657
56	1	LAYING	freq	body	accelerometer	NA	NA	std	Z	347	-0.929763496017291
57	1	LAYING	freq	body	accelerometer	NA	magnitude	mean	NA	347	-0.931484191708934
58	1	LAYING	freq	body	accelerometer	NA	magnitude	std	NA	347	-0.916583741472046
59	1	LAYING	freq	body	accelerometer	jerk	NA	mean	X	347	-0.974705093688761
60	1	LAYING	freq	body	accelerometer	jerk	NA	mean	Y	347	-0.958829724380403
61	1	LAYING	freq	body	accelerometer	jerk	NA	mean	Z	347	-0.967546623112392
62	1	LAYING	freq	body	accelerometer	jerk	NA	std	X	347	-0.977878498876081
63	1	LAYING	freq	body	accelerometer	jerk	NA	std	Y	347	-0.961810225446686
64	1	LAYING	freq	body	accelerometer	jerk	NA	std	Z	347	-0.974158923832853
65	1	LAYING	freq	body	accelerometer	jerk	magnitude	mean	NA	347	-0.962834534005764
66	1	LAYING	freq	body	accelerometer	jerk	magnitude	std	NA	347	-0.961254419048991
67	2	WALKING_DOWNSTAIRS	time	NA	gyroscope	NA	NA	mean	X	302	-0.0963084068296358
68	2	WALKING_DOWNSTAIRS	time	NA	gyroscope	NA	NA	mean	Y	302	-0.0497656095129139
69	2	WALKING_DOWNSTAIRS	time	NA	gyroscope	NA	NA	mean	Z	302	0.0963656053518543
70	2	WALKING_DOWNSTAIRS	time	NA	gyroscope	NA	NA	std	X	302	-0.341407035319205
71	2	WALKING_DOWNSTAIRS	time	NA	gyroscope	NA	NA	std	Y	302	-0.288057348038411
72	2	WALKING_DOWNSTAIRS	time	NA	gyroscope	NA	NA	std	Z	302	-0.247175440846358
73	2	WALKING_DOWNSTAIRS	time	NA	gyroscope	NA	magnitude	mean	NA	302	-0.111237049674967
74	2	WALKING_DOWNSTAIRS	time	NA	gyroscope	NA	magnitude	std	NA	302	-0.210745447636424
75	2	WALKING_DOWNSTAIRS	time	NA	gyroscope	jerk	NA	mean	X	302	-0.0605068872802318
76	2	WALKING_DOWNSTAIRS	time	NA	gyroscope	jerk	NA	mean	Y	302	-0.0530447957247351
77	2	WALKING_DOWNSTAIRS	time	NA	gyroscope	jerk	NA	mean	Z	302	-0.0480257252549669
78	2	WALKING_DOWNSTAIRS	time	NA	gyroscope	jerk	NA	std	X	302	-0.338691203249669
79	2	WALKING_DOWNSTAIRS	time	NA	gyroscope	jerk	NA	std	Y	302	-0.373489877443709
80	2	WALKING_DOWNSTAIRS	time	NA	gyroscope	jerk	NA	std	Z	302	-0.20998614250298
81	2	WALKING_DOWNSTAIRS	time	NA	gyroscope	jerk	magnitude	mean	NA	302	-0.333112816900662
82	2	WALKING_DOWNSTAIRS	time	NA	gyroscope	jerk	magnitude	std	NA	302	-0.356045678849868
83	2	WALKING_DOWNSTAIRS	time	body	accelerometer	NA	NA	mean	X	302	0.287294847801324
84	2	WALKING_DOWNSTAIRS	time	body	accelerometer	NA	NA	mean	Y	302	-0.0160999711948676
85	2	WALKING_DOWNSTAIRS	time	body	accelerometer	NA	NA	mean	Z	302	-0.106936494263576
86	2	WALKING_DOWNSTAIRS	time	body	accelerometer	NA	NA	std	X	302	0.127192232171427
87	2	WALKING_DOWNSTAIRS	time	body	accelerometer	NA	NA	std	Y	302	0.0885814502473179
88	2	WALKING_DOWNSTAIRS	time	body	accelerometer	NA	NA	std	Z	302	-0.214064025961689
89	2	WALKING_DOWNSTAIRS	time	body	accelerometer	NA	magnitude	mean	NA	302	0.118514068635199
90	2	WALKING_DOWNSTAIRS	time	body	accelerometer	NA	magnitude	std	NA	302	0.14312198517606
91	2	WALKING_DOWNSTAIRS	time	body	accelerometer	jerk	NA	mean	X	302	0.0891806095211921
92	2	WALKING_DOWNSTAIRS	time	body	accelerometer	jerk	NA	mean	Y	302	0.00562958616370861
93	2	WALKING_DOWNSTAIRS	time	body	accelerometer	jerk	NA	mean	Z	302	-0.010904524363543
94	2	WALKING_DOWNSTAIRS	time	body	accelerometer	jerk	NA	std	X	302	0.0457967729498344
95	2	WALKING_DOWNSTAIRS	time	body	accelerometer	jerk	NA	std	Y	302	-0.00360469368907285
96	2	WALKING_DOWNSTAIRS	time	body	accelerometer	jerk	NA	std	Z	302	-0.386200592623179
97	2	WALKING_DOWNSTAIRS	time	body	accelerometer	jerk	magnitude	mean	NA	302	-0.0495050855279139
98	2	WALKING_DOWNSTAIRS	time	body	accelerometer	jerk	magnitude	std	NA	302	0.0445426776956954
99	2	WALKING_DOWNSTAIRS	time	gravity	accelerometer	NA	NA	mean	X	302	0.934008305430464
100	2	WALKING_DOWNSTAIRS	time	gravity	accelerometer	NA	NA	mean	Y	302	-0.183167744536755
101	2	WALKING_DOWNSTAIRS	time	gravity	accelerometer	NA	NA	mean	Z	302	-0.0512108490510692
102	2	WALKING_DOWNSTAIRS	time	gravity	accelerometer	NA	NA	std	X	302	-0.952739665761589
103	2	WALKING_DOWNSTAIRS	time	gravity	accelerometer	NA	NA	std	Y	302	-0.93640693794702
104	2	WALKING_DOWNSTAIRS	time	gravity	accelerometer	NA	NA	std	Z	302	-0.915574979900662
105	2	WALKING_DOWNSTAIRS	time	gravity	accelerometer	NA	magnitude	mean	NA	302	0.118514068635199
106	2	WALKING_DOWNSTAIRS	time	gravity	accelerometer	NA	magnitude	std	NA	302	0.14312198517606
107	2	WALKING_DOWNSTAIRS	freq	NA	gyroscope	NA	NA	mean	X	302	-0.205432732150993
108	2	WALKING_DOWNSTAIRS	freq	NA	gyroscope	NA	NA	mean	Y	302	-0.241866530006291
109	2	WALKING_DOWNSTAIRS	freq	NA	gyroscope	NA	NA	mean	Z	302	-0.101675689389404
110	2	WALKING_DOWNSTAIRS	freq	NA	gyroscope	NA	NA	std	X	302	-0.38867268984702
111	2	WALKING_DOWNSTAIRS	freq	NA	gyroscope	NA	NA	std	Y	302	-0.325273333202318
112	2	WALKING_DOWNSTAIRS	freq	NA	gyroscope	NA	NA	std	Z	302	-0.372463114566225
113	2	WALKING_DOWNSTAIRS	freq	NA	gyroscope	NA	magnitude	mean	NA	302	-0.218176297085762
114	2	WALKING_DOWNSTAIRS	freq	NA	gyroscope	NA	magnitude	std	NA	302	-0.351181900931788
115	2	WALKING_DOWNSTAIRS	freq	NA	gyroscope	jerk	magnitude	mean	NA	302	-0.348835105839404
116	2	WALKING_DOWNSTAIRS	freq	NA	gyroscope	jerk	magnitude	std	NA	302	-0.413127741605066
117	2	WALKING_DOWNSTAIRS	freq	body	accelerometer	NA	NA	mean	X	302	0.096505404997351
118	2	WALKING_DOWNSTAIRS	freq	body	accelerometer	NA	NA	mean	Y	302	0.0938619387962252
119	2	WALKING_DOWNSTAIRS	freq	body	accelerometer	NA	NA	mean	Z	302	-0.233906936681126
120	2	WALKING_DOWNSTAIRS	freq	body	accelerometer	NA	NA	std	X	302	0.135520751677483
121	2	WALKING_DOWNSTAIRS	freq	body	accelerometer	NA	NA	std	Y	302	0.0151586601831126
122	2	WALKING_DOWNSTAIRS	freq	body	accelerometer	NA	NA	std	Z	302	-0.269217256620861
123	2	WALKING_DOWNSTAIRS	freq	body	accelerometer	NA	magnitude	mean	NA	302	0.187853894668543
124	2	WALKING_DOWNSTAIRS	freq	body	accelerometer	NA	magnitude	std	NA	302	-0.0646378284228477
125	2	WALKING_DOWNSTAIRS	freq	body	accelerometer	jerk	NA	mean	X	302	0.0106349769347682
126	2	WALKING_DOWNSTAIRS	freq	body	accelerometer	jerk	NA	mean	Y	302	-0.0660949804215232
127	2	WALKING_DOWNSTAIRS	freq	body	accelerometer	jerk	NA	mean	Z	302	-0.335405806431457
128	2	WALKING_DOWNSTAIRS	freq	body	accelerometer	jerk	NA	std	X	302	-0.0131711578886689
129	2	WALKING_DOWNSTAIRS	freq	body	accelerometer	jerk	NA	std	Y	302	-0.00420123594939404
130	2	WALKING_DOWNSTAIRS	freq	body	accelerometer	jerk	NA	std	Z	302	-0.43598479160596
131	2	WALKING_DOWNSTAIRS	freq	body	accelerometer	jerk	magnitude	mean	NA	302	0.080722683261457
132	2	WALKING_DOWNSTAIRS	freq	body	accelerometer	jerk	magnitude	std	NA	302	-0.0138870004794702
133	3	LAYING	time	NA	gyroscope	NA	NA	mean	X	341	-0.0172235685821947
134	3	LAYING	time	NA	gyroscope	NA	NA	mean	Y	341	-0.0944960183806452
135	3	LAYING	time	NA	gyroscope	NA	NA	mean	Z	341	0.116844017170088
136	3	LAYING	time	NA	gyroscope	NA	NA	std	X	341	-0.970744298768328
137	3	LAYING	time	NA	gyroscope	NA	NA	std	Y	341	-0.965782081319648
138	3	LAYING	time	NA	gyroscope	NA	NA	std	Z	341	-0.969491624134897
139	3	LAYING	time	NA	gyroscope	NA	magnitude	mean	NA	341	-0.947500823665689
140	3	LAYING	time	NA	gyroscope	NA	magnitude	std	NA	341	-0.945922319912023
141	3	LAYING	time	NA	gyroscope	jerk	NA	mean	X	341	-0.101601098967742
142	3	LAYING	time	NA	gyroscope	jerk	NA	mean	Y	341	-0.0377002560644839
143	3	LAYING	time	NA	gyroscope	jerk	NA	mean	Z	341	-0.0598310983017595
144	3	LAYING	time	NA	gyroscope	jerk	NA	std	X	341	-0.97918473170088
145	3	LAYING	time	NA	gyroscope	jerk	NA	std	Y	341	-0.982936728973607
146	3	LAYING	time	NA	gyroscope	jerk	NA	std	Z	341	-0.986458732756598
147	3	LAYING	time	NA	gyroscope	jerk	magnitude	mean	NA	341	-0.985582707243402
148	3	LAYING	time	NA	gyroscope	jerk	magnitude	std	NA	341	-0.97957405170088
149	3	LAYING	time	body	accelerometer	NA	NA	mean	X	341	0.271061989695015
150	3	LAYING	time	body	accelerometer	NA	NA	mean	Y	341	-0.0160574519173314
151	3	LAYING	time	body	accelerometer	NA	NA	mean	Z	341	-0.106675509205572
152	3	LAYING	time	body	accelerometer	NA	NA	std	X	341	-0.968081417636364
153	3	LAYING	time	body	accelerometer	NA	NA	std	Y	341	-0.949313073372434
154	3	LAYING	time	body	accelerometer	NA	NA	std	Z	341	-0.948235421659824
155	3	LAYING	time	body	accelerometer	NA	magnitude	mean	NA	341	-0.955237661466276
156	3	LAYING	time	body	accelerometer	NA	magnitude	std	NA	341	-0.942244112434018
157	3	LAYING	time	body	accelerometer	jerk	NA	mean	X	341	0.080353494098827
158	3	LAYING	time	body	accelerometer	jerk	NA	mean	Y	341	0.0082849293431085
159	3	LAYING	time	body	accelerometer	jerk	NA	mean	Z	341	-0.00614905309972141
160	3	LAYING	time	body	accelerometer	jerk	NA	std	X	341	-0.982348385513196
161	3	LAYING	time	body	accelerometer	jerk	NA	std	Y	341	-0.975209045923754
162	3	LAYING	time	body	accelerometer	jerk	NA	std	Z	341	-0.981659228005865
163	3	LAYING	time	body	accelerometer	jerk	magnitude	mean	NA	341	-0.981770004193548
164	3	LAYING	time	body	accelerometer	jerk	magnitude	std	NA	341	-0.978149685102639
165	3	LAYING	time	gravity	accelerometer	NA	NA	mean	X	341	-0.214563529014663
166	3	LAYING	time	gravity	accelerometer	NA	NA	mean	Y	341	0.586831435659824
167	3	LAYING	time	gravity	accelerometer	NA	NA	mean	Z	341	0.538369651695015
168	3	LAYING	time	gravity	accelerometer	NA	NA	std	X	341	-0.952968620205279
169	3	LAYING	time	gravity	accelerometer	NA	NA	std	Y	341	-0.972150402991202
170	3	LAYING	time	gravity	accelerometer	NA	NA	std	Z	341	-0.956414591935484
171	3	LAYING	time	gravity	accelerometer	NA	magnitude	mean	NA	341	-0.955237661466276
172	3	LAYING	time	gravity	accelerometer	NA	magnitude	std	NA	341	-0.942244112434018
173	3	LAYING	freq	NA	gyroscope	NA	NA	mean	X	341	-0.967075293108504
174	3	LAYING	freq	NA	gyroscope	NA	NA	mean	Y	341	-0.968827318504399
175	3	LAYING	freq	NA	gyroscope	NA	NA	mean	Z	341	-0.969549400322581
176	3	LAYING	freq	NA	gyroscope	NA	NA	std	X	341	-0.972112849090909
177	3	LAYING	freq	NA	gyroscope	NA	NA	std	Y	341	-0.964520859120235
178	3	LAYING	freq	NA	gyroscope	NA	NA	std	Z	341	-0.972282979002932
179	3	LAYING	freq	NA	gyroscope	NA	magnitude	mean	NA	341	-0.959395377360704
180	3	LAYING	freq	NA	gyroscope	NA	magnitude	std	NA	341	-0.946880049032258
181	3	LAYING	freq	NA	gyroscope	jerk	magnitude	mean	NA	341	-0.98081801058651
182	3	LAYING	freq	NA	gyroscope	jerk	magnitude	std	NA	341	-0.979208243900293
183	3	LAYING	freq	body	accelerometer	NA	NA	mean	X	341	-0.972102076568915
184	3	LAYING	freq	body	accelerometer	NA	NA	mean	Y	341	-0.958382244985337
185	3	LAYING	freq	body	accelerometer	NA	NA	mean	Z	341	-0.96164589483871
186	3	LAYING	freq	body	accelerometer	NA	NA	std	X	341	-0.966773080478006
187	3	LAYING	freq	body	accelerometer	NA	NA	std	Y	341	-0.94773730726393
188	3	LAYING	freq	body	accelerometer	NA	NA	std	Z	341	-0.944867576510264
189	3	LAYING	freq	body	accelerometer	NA	magnitude	mean	NA	341	-0.955983998243402
190	3	LAYING	freq	body	accelerometer	NA	magnitude	std	NA	341	-0.944063420527859
191	3	LAYING	freq	body	accelerometer	jerk	NA	mean	X	341	-0.982300736891496
192	3	LAYING	freq	body	accelerometer	jerk	NA	mean	Y	341	-0.975564942140762
193	3	LAYING	freq	body	accelerometer	jerk	NA	mean	Z	341	-0.97888804686217
194	3	LAYING	freq	body	accelerometer	jerk	NA	std	X	341	-0.984055123577713
195	3	LAYING	freq	body	accelerometer	jerk	NA	std	Y	341	-0.976656469120235
196	3	LAYING	freq	body	accelerometer	jerk	NA	std	Z	341	-0.983061973958944
197	3	LAYING	freq	body	accelerometer	jerk	magnitude	mean	NA	341	-0.978256432697947
198	3	LAYING	freq	body	accelerometer	jerk	magnitude	std	NA	341	-0.976993325777126
199	4	WALKING_DOWNSTAIRS	time	NA	gyroscope	NA	NA	mean	X	317	-0.0715712803381704
200	4	WALKING_DOWNSTAIRS	time	NA	gyroscope	NA	NA	mean	Y	317	-0.0486837334911672
201	4	WALKING_DOWNSTAIRS	time	NA	gyroscope	NA	NA	mean	Z	317	0.08026968035653
202	4	WALKING_DOWNSTAIRS	time	NA	gyroscope	NA	NA	std	X	317	-0.293350054982965
203	4	WALKING_DOWNSTAIRS	time	NA	gyroscope	NA	NA	std	Y	317	-0.3188406416347
204	4	WALKING_DOWNSTAIRS	time	NA	gyroscope	NA	NA	std	Z	317	-0.218364301744479
205	4	WALKING_DOWNSTAIRS	time	NA	gyroscope	NA	magnitude	mean	NA	317	-0.0757030235635331
206	4	WALKING_DOWNSTAIRS	time	NA	gyroscope	NA	magnitude	std	NA	317	-0.237514537550158
207	4	WALKING_DOWNSTAIRS	time	NA	gyroscope	jerk	NA	mean	X	317	-0.0783134194550473
208	4	WALKING_DOWNSTAIRS	time	NA	gyroscope	jerk	NA	mean	Y	317	-0.0537461631008517
209	4	WALKING_DOWNSTAIRS	time	NA	gyroscope	jerk	NA	mean	Z	317	-0.0578345982087697
210	4	WALKING_DOWNSTAIRS	time	NA	gyroscope	jerk	NA	std	X	317	-0.422562337559306
211	4	WALKING_DOWNSTAIRS	time	NA	gyroscope	jerk	NA	std	Y	317	-0.460886265709779
212	4	WALKING_DOWNSTAIRS	time	NA	gyroscope	jerk	NA	std	Z	317	-0.310116935729243
213	4	WALKING_DOWNSTAIRS	time	NA	gyroscope	jerk	magnitude	mean	NA	317	-0.411513578914826
214	4	WALKING_DOWNSTAIRS	time	NA	gyroscope	jerk	magnitude	std	NA	317	-0.472295692457098
215	4	WALKING_DOWNSTAIRS	time	body	accelerometer	NA	NA	mean	X	317	0.287436091750789
216	4	WALKING_DOWNSTAIRS	time	body	accelerometer	NA	NA	mean	Y	317	-0.0160603817574827
217	4	WALKING_DOWNSTAIRS	time	body	accelerometer	NA	NA	mean	Z	317	-0.106688390893306
218	4	WALKING_DOWNSTAIRS	time	body	accelerometer	NA	NA	std	X	317	0.269132807154574
219	4	WALKING_DOWNSTAIRS	time	body	accelerometer	NA	NA	std	Y	317	0.185864237970757
220	4	WALKING_DOWNSTAIRS	time	body	accelerometer	NA	NA	std	Z	317	-0.0647020951665615
221	4	WALKING_DOWNSTAIRS	time	body	accelerometer	NA	magnitude	mean	NA	317	0.275987400636183
222	4	WALKING_DOWNSTAIRS	time	body	accelerometer	NA	magnitude	std	NA	317	0.245052449247571
223	4	WALKING_DOWNSTAIRS	time	body	accelerometer	jerk	NA	mean	X	317	0.0869250625873817
224	4	WALKING_DOWNSTAIRS	time	body	accelerometer	jerk	NA	mean	Y	317	-0.00400318038094637
225	4	WALKING_DOWNSTAIRS	time	body	accelerometer	jerk	NA	mean	Z	317	-0.00735453174233438
226	4	WALKING_DOWNSTAIRS	time	body	accelerometer	jerk	NA	std	X	317	0.0608839116818296
227	4	WALKING_DOWNSTAIRS	time	body	accelerometer	jerk	NA	std	Y	317	-0.0253005364176656
228	4	WALKING_DOWNSTAIRS	time	body	accelerometer	jerk	NA	std	Z	317	-0.318369338432618
229	4	WALKING_DOWNSTAIRS	time	body	accelerometer	jerk	magnitude	mean	NA	317	-0.0286335007219874
230	4	WALKING_DOWNSTAIRS	time	body	accelerometer	jerk	magnitude	std	NA	317	0.0658448944851735
231	4	WALKING_DOWNSTAIRS	time	gravity	accelerometer	NA	NA	mean	X	317	0.898566216466877
232	4	WALKING_DOWNSTAIRS	time	gravity	accelerometer	NA	NA	mean	Y	317	-0.203119003504732
233	4	WALKING_DOWNSTAIRS	time	gravity	accelerometer	NA	NA	mean	Z	317	-0.133743085452997
234	4	WALKING_DOWNSTAIRS	time	gravity	accelerometer	NA	NA	std	X	317	-0.937914161514196
235	4	WALKING_DOWNSTAIRS	time	gravity	accelerometer	NA	NA	std	Y	317	-0.935258601167192
236	4	WALKING_DOWNSTAIRS	time	gravity	accelerometer	NA	NA	std	Z	317	-0.907162214574133
237	4	WALKING_DOWNSTAIRS	time	gravity	accelerometer	NA	magnitude	mean	NA	317	0.275987400636183
238	4	WALKING_DOWNSTAIRS	time	gravity	accelerometer	NA	magnitude	std	NA	317	0.245052449247571
239	4	WALKING_DOWNSTAIRS	freq	NA	gyroscope	NA	NA	mean	X	317	-0.205032630040379
240	4	WALKING_DOWNSTAIRS	freq	NA	gyroscope	NA	NA	mean	Y	317	-0.301696433315457
241	4	WALKING_DOWNSTAIRS	freq	NA	gyroscope	NA	NA	mean	Z	317	-0.112362029793375
242	4	WALKING_DOWNSTAIRS	freq	NA	gyroscope	NA	NA	std	X	317	-0.326078250336278
243	4	WALKING_DOWNSTAIRS	freq	NA	gyroscope	NA	NA	std	Y	317	-0.33709133145041
244	4	WALKING_DOWNSTAIRS	freq	NA	gyroscope	NA	NA	std	Z	317	-0.329536729208833
245	4	WALKING_DOWNSTAIRS	freq	NA	gyroscope	NA	magnitude	mean	NA	317	-0.289531267135331
246	4	WALKING_DOWNSTAIRS	freq	NA	gyroscope	NA	magnitude	std	NA	317	-0.338251849476719
247	4	WALKING_DOWNSTAIRS	freq	NA	gyroscope	jerk	magnitude	mean	NA	317	-0.457414248723533
248	4	WALKING_DOWNSTAIRS	freq	NA	gyroscope	jerk	magnitude	std	NA	317	-0.53246034362776
249	4	WALKING_DOWNSTAIRS	freq	body	accelerometer	NA	NA	mean	X	317	0.141030879412208
250	4	WALKING_DOWNSTAIRS	freq	body	accelerometer	NA	NA	mean	Y	317	0.149690339056909
251	4	WALKING_DOWNSTAIRS	freq	body	accelerometer	NA	NA	mean	Z	317	-0.103555561177508
252	4	WALKING_DOWNSTAIRS	freq	body	accelerometer	NA	NA	std	X	317	0.313341163028297
253	4	WALKING_DOWNSTAIRS	freq	body	accelerometer	NA	NA	std	Y	317	0.127844743425552
254	4	WALKING_DOWNSTAIRS	freq	body	accelerometer	NA	NA	std	Z	317	-0.121147553121136
255	4	WALKING_DOWNSTAIRS	freq	body	accelerometer	NA	magnitude	mean	NA	317	0.265058634035331
256	4	WALKING_DOWNSTAIRS	freq	body	accelerometer	NA	magnitude	std	NA	317	0.0366049145908517
257	4	WALKING_DOWNSTAIRS	freq	body	accelerometer	jerk	NA	mean	X	317	-0.00143122468895899
258	4	WALKING_DOWNSTAIRS	freq	body	accelerometer	jerk	NA	mean	Y	317	-0.0651839689003155
259	4	WALKING_DOWNSTAIRS	freq	body	accelerometer	jerk	NA	mean	Z	317	-0.254894696110726
260	4	WALKING_DOWNSTAIRS	freq	body	accelerometer	jerk	NA	std	X	317	0.0294779582347634
261	4	WALKING_DOWNSTAIRS	freq	body	accelerometer	jerk	NA	std	Y	317	-0.048857671587224
262	4	WALKING_DOWNSTAIRS	freq	body	accelerometer	jerk	NA	std	Z	317	-0.381271827990032
263	4	WALKING_DOWNSTAIRS	freq	body	accelerometer	jerk	magnitude	mean	NA	317	0.0879155431494637
264	4	WALKING_DOWNSTAIRS	freq	body	accelerometer	jerk	magnitude	std	NA	317	0.0263139180943218
265	5	LAYING	time	NA	gyroscope	NA	NA	mean	X	302	-0.0194404096651656
266	5	LAYING	time	NA	gyroscope	NA	NA	mean	Y	302	-0.101695521377152
267	5	LAYING	time	NA	gyroscope	NA	NA	mean	Z	302	0.117839759427152
268	5	LAYING	time	NA	gyroscope	NA	NA	std	X	302	-0.961082474437086
269	5	LAYING	time	NA	gyroscope	NA	NA	std	Y	302	-0.95289138013245
270	5	LAYING	time	NA	gyroscope	NA	NA	std	Z	302	-0.958035298642384
271	5	LAYING	time	NA	gyroscope	NA	magnitude	mean	NA	302	-0.923448880695364
272	5	LAYING	time	NA	gyroscope	NA	magnitude	std	NA	302	-0.931437749569536
273	5	LAYING	time	NA	gyroscope	jerk	NA	mean	X	302	-0.0988077684523179
274	5	LAYING	time	NA	gyroscope	jerk	NA	mean	Y	302	-0.0368856386018543
275	5	LAYING	time	NA	gyroscope	jerk	NA	mean	Z	302	-0.0624772835629139
276	5	LAYING	time	NA	gyroscope	jerk	NA	std	X	302	-0.975242142913907
277	5	LAYING	time	NA	gyroscope	jerk	NA	std	Y	302	-0.97945821986755
278	5	LAYING	time	NA	gyroscope	jerk	NA	std	Z	302	-0.984944531456954
279	5	LAYING	time	NA	gyroscope	jerk	magnitude	mean	NA	302	-0.981798305496689
280	5	LAYING	time	NA	gyroscope	jerk	magnitude	std	NA	302	-0.976469042450331
281	5	LAYING	time	body	accelerometer	NA	NA	mean	X	302	0.272551228748344
282	5	LAYING	time	body	accelerometer	NA	NA	mean	Y	302	-0.0185732943740397
283	5	LAYING	time	body	accelerometer	NA	NA	mean	Z	302	-0.105394665125828
284	5	LAYING	time	body	accelerometer	NA	NA	std	X	302	-0.943223420397351
285	5	LAYING	time	body	accelerometer	NA	NA	std	Y	302	-0.910625531758278
286	5	LAYING	time	body	accelerometer	NA	NA	std	Z	302	-0.929004396996689
287	5	LAYING	time	body	accelerometer	NA	magnitude	mean	NA	302	-0.898054940254967
288	5	LAYING	time	body	accelerometer	NA	magnitude	std	NA	302	-0.89871759931457
289	5	LAYING	time	body	accelerometer	jerk	NA	mean	X	302	0.0813251823758278
290	5	LAYING	time	body	accelerometer	jerk	NA	mean	Y	302	0.013652239112947
291	5	LAYING	time	body	accelerometer	jerk	NA	mean	Z	302	-0.00978930157013907
292	5	LAYING	time	body	accelerometer	jerk	NA	std	X	302	-0.97945226115894
293	5	LAYING	time	body	accelerometer	jerk	NA	std	Y	302	-0.967674992880795
294	5	LAYING	time	body	accelerometer	jerk	NA	std	Z	302	-0.980404764701987
295	5	LAYING	time	body	accelerometer	jerk	magnitude	mean	NA	302	-0.978285356291391
296	5	LAYING	time	body	accelerometer	jerk	magnitude	std	NA	302	-0.972957609536424
297	5	LAYING	time	gravity	accelerometer	NA	NA	mean	X	302	-0.417383694086093
298	5	LAYING	time	gravity	accelerometer	NA	NA	mean	Y	302	0.577428431619205
299	5	LAYING	time	gravity	accelerometer	NA	NA	mean	Z	302	0.784869303013245
300	5	LAYING	time	gravity	accelerometer	NA	NA	std	X	302	-0.921352966291391
301	5	LAYING	time	gravity	accelerometer	NA	NA	std	Y	302	-0.929417627404305
302	5	LAYING	time	gravity	accelerometer	NA	NA	std	Z	302	-0.927350781092715
303	5	LAYING	time	gravity	accelerometer	NA	magnitude	mean	NA	302	-0.898054940254967
304	5	LAYING	time	gravity	accelerometer	NA	magnitude	std	NA	302	-0.89871759931457
305	5	LAYING	freq	NA	gyroscope	NA	NA	mean	X	302	-0.957853085993377
306	5	LAYING	freq	NA	gyroscope	NA	NA	mean	Y	302	-0.962906232450331
307	5	LAYING	freq	NA	gyroscope	NA	NA	mean	Z	302	-0.962481741390728
308	5	LAYING	freq	NA	gyroscope	NA	NA	std	X	302	-0.962577900231788
309	5	LAYING	freq	NA	gyroscope	NA	NA	std	Y	302	-0.948430644503311
310	5	LAYING	freq	NA	gyroscope	NA	NA	std	Z	302	-0.96075885102649
311	5	LAYING	freq	NA	gyroscope	NA	magnitude	mean	NA	302	-0.951114870066225
312	5	LAYING	freq	NA	gyroscope	NA	magnitude	std	NA	302	-0.931542458741722
313	5	LAYING	freq	NA	gyroscope	jerk	magnitude	mean	NA	302	-0.977901604503311
314	5	LAYING	freq	NA	gyroscope	jerk	magnitude	std	NA	302	-0.976089601622517
315	5	LAYING	freq	body	accelerometer	NA	NA	mean	X	302	-0.957467443245033
316	5	LAYING	freq	body	accelerometer	NA	NA	mean	Y	302	-0.930346315576159
317	5	LAYING	freq	body	accelerometer	NA	NA	mean	Z	302	-0.949415754205298
318	5	LAYING	freq	body	accelerometer	NA	NA	std	X	302	-0.938639502483444
319	5	LAYING	freq	body	accelerometer	NA	NA	std	Y	302	-0.907186971774835
320	5	LAYING	freq	body	accelerometer	NA	NA	std	Z	302	-0.924151187701987
321	5	LAYING	freq	body	accelerometer	NA	magnitude	mean	NA	302	-0.927792237728477
322	5	LAYING	freq	body	accelerometer	NA	magnitude	std	NA	302	-0.900700060311258
323	5	LAYING	freq	body	accelerometer	jerk	NA	mean	X	302	-0.978931842847682
324	5	LAYING	freq	body	accelerometer	jerk	NA	mean	Y	302	-0.96796029205298
325	5	LAYING	freq	body	accelerometer	jerk	NA	mean	Z	302	-0.977587334039735
326	5	LAYING	freq	body	accelerometer	jerk	NA	std	X	302	-0.982033270364238
327	5	LAYING	freq	body	accelerometer	jerk	NA	std	Y	302	-0.969780216754967
328	5	LAYING	freq	body	accelerometer	jerk	NA	std	Z	302	-0.981851125264901
329	5	LAYING	freq	body	accelerometer	jerk	magnitude	mean	NA	302	-0.973267372284768
330	5	LAYING	freq	body	accelerometer	jerk	magnitude	std	NA	302	-0.971572846589404
331	6	LAYING	time	NA	gyroscope	NA	NA	mean	X	325	-0.0172908663953231
332	6	LAYING	time	NA	gyroscope	NA	NA	mean	Y	325	-0.0890856122184615
333	6	LAYING	time	NA	gyroscope	NA	NA	mean	Z	325	0.125257695089231
334	6	LAYING	time	NA	gyroscope	NA	NA	std	X	325	-0.971444721292308
335	6	LAYING	time	NA	gyroscope	NA	NA	std	Y	325	-0.972052426892308
336	6	LAYING	time	NA	gyroscope	NA	NA	std	Z	325	-0.965635492584615
337	6	LAYING	time	NA	gyroscope	NA	magnitude	mean	NA	325	-0.9404517808
338	6	LAYING	time	NA	gyroscope	NA	magnitude	std	NA	325	-0.947780109323077
339	6	LAYING	time	NA	gyroscope	jerk	NA	mean	X	325	-0.101854108950769
340	6	LAYING	time	NA	gyroscope	jerk	NA	mean	Y	325	-0.0379296515848615
341	6	LAYING	time	NA	gyroscope	jerk	NA	mean	Z	325	-0.0636149828729231
342	6	LAYING	time	NA	gyroscope	jerk	NA	std	X	325	-0.981690637630769
343	6	LAYING	time	NA	gyroscope	jerk	NA	std	Y	325	-0.986737522092308
344	6	LAYING	time	NA	gyroscope	jerk	NA	std	Z	325	-0.988792459661538
345	6	LAYING	time	NA	gyroscope	jerk	magnitude	mean	NA	325	-0.987267698523077
346	6	LAYING	time	NA	gyroscope	jerk	magnitude	std	NA	325	-0.984557124523077
347	6	LAYING	time	body	accelerometer	NA	NA	mean	X	325	0.272087330319692
348	6	LAYING	time	body	accelerometer	NA	NA	mean	Y	325	-0.0174948509941538
349	6	LAYING	time	body	accelerometer	NA	NA	mean	Z	325	-0.107018791916923
350	6	LAYING	time	body	accelerometer	NA	NA	std	X	325	-0.968777131969231
351	6	LAYING	time	body	accelerometer	NA	NA	std	Y	325	-0.950725491846154
352	6	LAYING	time	body	accelerometer	NA	NA	std	Z	325	-0.947476101076923
353	6	LAYING	time	body	accelerometer	NA	magnitude	mean	NA	325	-0.931218938486154
354	6	LAYING	time	body	accelerometer	NA	magnitude	std	NA	325	-0.935147833815385
355	6	LAYING	time	body	accelerometer	jerk	NA	mean	X	325	0.0797616301655385
356	6	LAYING	time	body	accelerometer	jerk	NA	mean	Y	325	0.0119201213323692
357	6	LAYING	time	body	accelerometer	jerk	NA	mean	Z	325	-0.00393229919658462
358	6	LAYING	time	body	accelerometer	jerk	NA	std	X	325	-0.984880395907692
359	6	LAYING	time	body	accelerometer	jerk	NA	std	Y	325	-0.980225376184615
360	6	LAYING	time	body	accelerometer	jerk	NA	std	Z	325	-0.983208127692308
361	6	LAYING	time	body	accelerometer	jerk	magnitude	mean	NA	325	-0.983858544
362	6	LAYING	time	body	accelerometer	jerk	magnitude	std	NA	325	-0.982795787230769
363	6	LAYING	time	gravity	accelerometer	NA	NA	mean	X	325	-0.494762532369231
364	6	LAYING	time	gravity	accelerometer	NA	NA	mean	Y	325	0.565918486323077
365	6	LAYING	time	gravity	accelerometer	NA	NA	mean	Z	325	0.503153119898462
366	6	LAYING	time	gravity	accelerometer	NA	NA	std	X	325	-0.952047263230769
367	6	LAYING	time	gravity	accelerometer	NA	NA	std	Y	325	-0.953541739858461
368	6	LAYING	time	gravity	accelerometer	NA	NA	std	Z	325	-0.936201357289231
369	6	LAYING	time	gravity	accelerometer	NA	magnitude	mean	NA	325	-0.931218938486154
370	6	LAYING	time	gravity	accelerometer	NA	magnitude	std	NA	325	-0.935147833815385
371	6	LAYING	freq	NA	gyroscope	NA	NA	mean	X	325	-0.968451968492308
372	6	LAYING	freq	NA	gyroscope	NA	NA	mean	Y	325	-0.976269322738461
373	6	LAYING	freq	NA	gyroscope	NA	NA	mean	Z	325	-0.9670767388
374	6	LAYING	freq	NA	gyroscope	NA	NA	std	X	325	-0.972653325753846
375	6	LAYING	freq	NA	gyroscope	NA	NA	std	Y	325	-0.970135054307692
376	6	LAYING	freq	NA	gyroscope	NA	NA	std	Z	325	-0.968363583907692
377	6	LAYING	freq	NA	gyroscope	NA	magnitude	mean	NA	325	-0.962545277476923
378	6	LAYING	freq	NA	gyroscope	NA	magnitude	std	NA	325	-0.947898169046154
379	6	LAYING	freq	NA	gyroscope	jerk	magnitude	mean	NA	325	-0.985140084492308
380	6	LAYING	freq	NA	gyroscope	jerk	magnitude	std	NA	325	-0.984694441630769
381	6	LAYING	freq	body	accelerometer	NA	NA	mean	X	325	-0.973625604707692
382	6	LAYING	freq	body	accelerometer	NA	NA	mean	Y	325	-0.961086033815385
383	6	LAYING	freq	body	accelerometer	NA	NA	mean	Z	325	-0.960381736953846
384	6	LAYING	freq	body	accelerometer	NA	NA	std	X	325	-0.967123518338462
385	6	LAYING	freq	body	accelerometer	NA	NA	std	Y	325	-0.948633975476923
386	6	LAYING	freq	body	accelerometer	NA	NA	std	Z	325	-0.944944787842769
387	6	LAYING	freq	body	accelerometer	NA	magnitude	mean	NA	325	-0.9525395816
388	6	LAYING	freq	body	accelerometer	NA	magnitude	std	NA	325	-0.936971701406154
389	6	LAYING	freq	body	accelerometer	jerk	NA	mean	X	325	-0.984878169446154
390	6	LAYING	freq	body	accelerometer	jerk	NA	mean	Y	325	-0.9801336824
391	6	LAYING	freq	body	accelerometer	jerk	NA	mean	Z	325	-0.980805148338462
392	6	LAYING	freq	body	accelerometer	jerk	NA	std	X	325	-0.986293264953846
393	6	LAYING	freq	body	accelerometer	jerk	NA	std	Y	325	-0.981845622338462
394	6	LAYING	freq	body	accelerometer	jerk	NA	std	Z	325	-0.984231041692308
395	6	LAYING	freq	body	accelerometer	jerk	magnitude	mean	NA	325	-0.982370264153846
396	6	LAYING	freq	body	accelerometer	jerk	magnitude	std	NA	325	-0.982378002246154
397	7	LAYING	time	NA	gyroscope	NA	NA	mean	X	308	-0.017741121163961
398	7	LAYING	time	NA	gyroscope	NA	NA	mean	Y	308	-0.101082893176104
399	7	LAYING	time	NA	gyroscope	NA	NA	mean	Z	308	0.124301778711364
400	7	LAYING	time	NA	gyroscope	NA	NA	std	X	308	-0.969189736525974
401	7	LAYING	time	NA	gyroscope	NA	NA	std	Y	308	-0.9601890175
402	7	LAYING	time	NA	gyroscope	NA	NA	std	Z	308	-0.965505586266234
403	7	LAYING	time	NA	gyroscope	NA	magnitude	mean	NA	308	-0.939722541948052
404	7	LAYING	time	NA	gyroscope	NA	magnitude	std	NA	308	-0.940026447662338
405	7	LAYING	time	NA	gyroscope	jerk	NA	mean	X	308	-0.102177157727273
406	7	LAYING	time	NA	gyroscope	jerk	NA	mean	Y	308	-0.0363422274535714
407	7	LAYING	time	NA	gyroscope	jerk	NA	mean	Z	308	-0.0636463735126623
408	7	LAYING	time	NA	gyroscope	jerk	NA	std	X	308	-0.974225298051948
409	7	LAYING	time	NA	gyroscope	jerk	NA	std	Y	308	-0.977810960746753
410	7	LAYING	time	NA	gyroscope	jerk	NA	std	Z	308	-0.983086377402597
411	7	LAYING	time	NA	gyroscope	jerk	magnitude	mean	NA	308	-0.980287744123377
412	7	LAYING	time	NA	gyroscope	jerk	magnitude	std	NA	308	-0.973295357857143
413	7	LAYING	time	body	accelerometer	NA	NA	mean	X	308	0.272129825126623
414	7	LAYING	time	body	accelerometer	NA	NA	mean	Y	308	-0.0193744550976623
415	7	LAYING	time	body	accelerometer	NA	NA	mean	Z	308	-0.108504221461039
416	7	LAYING	time	body	accelerometer	NA	NA	std	X	308	-0.963502698376623
417	7	LAYING	time	body	accelerometer	NA	NA	std	Y	308	-0.949073664285714
418	7	LAYING	time	body	accelerometer	NA	NA	std	Z	308	-0.963003919512987
419	7	LAYING	time	body	accelerometer	NA	magnitude	mean	NA	308	-0.95855617262987
420	7	LAYING	time	body	accelerometer	NA	magnitude	std	NA	308	-0.943787662905844
421	7	LAYING	time	body	accelerometer	jerk	NA	mean	X	308	0.0827318021152597
422	7	LAYING	time	body	accelerometer	jerk	NA	mean	Y	308	0.0106853986174448
423	7	LAYING	time	body	accelerometer	jerk	NA	mean	Z	308	-0.00214052140779221
424	7	LAYING	time	body	accelerometer	jerk	NA	std	X	308	-0.977504817142857
425	7	LAYING	time	body	accelerometer	jerk	NA	std	Y	308	-0.966910964772727
426	7	LAYING	time	body	accelerometer	jerk	NA	std	Z	308	-0.977200892402597
427	7	LAYING	time	body	accelerometer	jerk	magnitude	mean	NA	308	-0.976267577662338
428	7	LAYING	time	body	accelerometer	jerk	magnitude	std	NA	308	-0.969120946590909
429	7	LAYING	time	gravity	accelerometer	NA	NA	mean	X	308	-0.440086446974026
430	7	LAYING	time	gravity	accelerometer	NA	NA	mean	Y	308	0.469327794383117
431	7	LAYING	time	gravity	accelerometer	NA	NA	mean	Z	308	0.520032056168831
432	7	LAYING	time	gravity	accelerometer	NA	NA	std	X	308	-0.946562475357143
433	7	LAYING	time	gravity	accelerometer	NA	NA	std	Y	308	-0.977031029935065
434	7	LAYING	time	gravity	accelerometer	NA	NA	std	Z	308	-0.974116302373377
435	7	LAYING	time	gravity	accelerometer	NA	magnitude	mean	NA	308	-0.95855617262987
436	7	LAYING	time	gravity	accelerometer	NA	magnitude	std	NA	308	-0.943787662905844
437	7	LAYING	freq	NA	gyroscope	NA	NA	mean	X	308	-0.963491299675325
438	7	LAYING	freq	NA	gyroscope	NA	NA	mean	Y	308	-0.964248751688312
439	7	LAYING	freq	NA	gyroscope	NA	NA	mean	Z	308	-0.964663551948052
440	7	LAYING	freq	NA	gyroscope	NA	NA	std	X	308	-0.971194900616883
441	7	LAYING	freq	NA	gyroscope	NA	NA	std	Y	308	-0.958479656006494
442	7	LAYING	freq	NA	gyroscope	NA	NA	std	Z	308	-0.968972668571428
443	7	LAYING	freq	NA	gyroscope	NA	magnitude	mean	NA	308	-0.952655866038961
444	7	LAYING	freq	NA	gyroscope	NA	magnitude	std	NA	308	-0.94241111025974
445	7	LAYING	freq	NA	gyroscope	jerk	magnitude	mean	NA	308	-0.974666070064935
446	7	LAYING	freq	NA	gyroscope	jerk	magnitude	std	NA	308	-0.973265332045455
447	7	LAYING	freq	body	accelerometer	NA	NA	mean	X	308	-0.965588177922078
448	7	LAYING	freq	body	accelerometer	NA	NA	mean	Y	308	-0.954561888798701
449	7	LAYING	freq	body	accelerometer	NA	NA	mean	Z	308	-0.967102901818182
450	7	LAYING	freq	body	accelerometer	NA	NA	std	X	308	-0.962833776136364
451	7	LAYING	freq	body	accelerometer	NA	NA	std	Y	308	-0.949247297983766
452	7	LAYING	freq	body	accelerometer	NA	NA	std	Z	308	-0.963134881340909
453	7	LAYING	freq	body	accelerometer	NA	magnitude	mean	NA	308	-0.951281637155844
454	7	LAYING	freq	body	accelerometer	NA	magnitude	std	NA	308	-0.948173007960065
455	7	LAYING	freq	body	accelerometer	jerk	NA	mean	X	308	-0.977498283896104
456	7	LAYING	freq	body	accelerometer	jerk	NA	mean	Y	308	-0.967480604155844
457	7	LAYING	freq	body	accelerometer	jerk	NA	mean	Z	308	-0.97410384461039
458	7	LAYING	freq	body	accelerometer	jerk	NA	std	X	308	-0.979654114090909
459	7	LAYING	freq	body	accelerometer	jerk	NA	std	Y	308	-0.968727128506494
460	7	LAYING	freq	body	accelerometer	jerk	NA	std	Z	308	-0.978964248701299
461	7	LAYING	freq	body	accelerometer	jerk	magnitude	mean	NA	308	-0.969443181331169
462	7	LAYING	freq	body	accelerometer	jerk	magnitude	std	NA	308	-0.967714969220779
463	8	LAYING	time	NA	gyroscope	NA	NA	mean	X	281	-0.0191201697010249
464	8	LAYING	time	NA	gyroscope	NA	NA	mean	Y	281	-0.087072931569395
465	8	LAYING	time	NA	gyroscope	NA	NA	mean	Z	281	0.113238955078292
466	8	LAYING	time	NA	gyroscope	NA	NA	std	X	281	-0.980423189323843
467	8	LAYING	time	NA	gyroscope	NA	NA	std	Y	281	-0.967886602384342
468	8	LAYING	time	NA	gyroscope	NA	NA	std	Z	281	-0.971975145622776
469	8	LAYING	time	NA	gyroscope	NA	magnitude	mean	NA	281	-0.957407944839858
470	8	LAYING	time	NA	gyroscope	NA	magnitude	std	NA	281	-0.95727012227758
471	8	LAYING	time	NA	gyroscope	jerk	NA	mean	X	281	-0.100629233501779
472	8	LAYING	time	NA	gyroscope	jerk	NA	mean	Y	281	-0.0403823582608541
473	8	LAYING	time	NA	gyroscope	jerk	NA	mean	Z	281	-0.0624046638896797
474	8	LAYING	time	NA	gyroscope	jerk	NA	std	X	281	-0.984056573274021
475	8	LAYING	time	NA	gyroscope	jerk	NA	std	Y	281	-0.979648178469751
476	8	LAYING	time	NA	gyroscope	jerk	NA	std	Z	281	-0.986228372562278
477	8	LAYING	time	NA	gyroscope	jerk	magnitude	mean	NA	281	-0.984624611067616
478	8	LAYING	time	NA	gyroscope	jerk	magnitude	std	NA	281	-0.978287122313167
479	8	LAYING	time	body	accelerometer	NA	NA	mean	X	281	0.266352131743772
480	8	LAYING	time	body	accelerometer	NA	NA	mean	Y	281	-0.0173360335864769
481	8	LAYING	time	body	accelerometer	NA	NA	mean	Z	281	-0.106978700272598
482	8	LAYING	time	body	accelerometer	NA	NA	std	X	281	-0.97079467113879
483	8	LAYING	time	body	accelerometer	NA	NA	std	Y	281	-0.967732383202847
484	8	LAYING	time	body	accelerometer	NA	NA	std	Z	281	-0.968556145658363
485	8	LAYING	time	body	accelerometer	NA	magnitude	mean	NA	281	-0.968057203380783
486	8	LAYING	time	body	accelerometer	NA	magnitude	std	NA	281	-0.959607085765125
487	8	LAYING	time	body	accelerometer	jerk	NA	mean	X	281	0.0795160608967971
488	8	LAYING	time	body	accelerometer	jerk	NA	mean	Y	281	0.0107037626359786
489	8	LAYING	time	body	accelerometer	jerk	NA	mean	Z	281	-0.00337761681807473
490	8	LAYING	time	body	accelerometer	jerk	NA	std	X	281	-0.982554621352313
491	8	LAYING	time	body	accelerometer	jerk	NA	std	Y	281	-0.977697163701068
492	8	LAYING	time	body	accelerometer	jerk	NA	std	Z	281	-0.983021637508897
493	8	LAYING	time	body	accelerometer	jerk	magnitude	mean	NA	281	-0.983256738576513
494	8	LAYING	time	body	accelerometer	jerk	magnitude	std	NA	281	-0.979348590498221
495	8	LAYING	time	gravity	accelerometer	NA	NA	mean	X	281	-0.322789402740214
496	8	LAYING	time	gravity	accelerometer	NA	NA	mean	Y	281	0.766304498078292
497	8	LAYING	time	gravity	accelerometer	NA	NA	mean	Z	281	0.50562971805694
498	8	LAYING	time	gravity	accelerometer	NA	NA	std	X	281	-0.959416963523132
499	8	LAYING	time	gravity	accelerometer	NA	NA	std	Y	281	-0.983337896690391
500	8	LAYING	time	gravity	accelerometer	NA	NA	std	Z	281	-0.976653161672598
501	8	LAYING	time	gravity	accelerometer	NA	magnitude	mean	NA	281	-0.968057203380783
502	8	LAYING	time	gravity	accelerometer	NA	magnitude	std	NA	281	-0.959607085765125
503	8	LAYING	freq	NA	gyroscope	NA	NA	mean	X	281	-0.977018797259787
504	8	LAYING	freq	NA	gyroscope	NA	NA	mean	Y	281	-0.970243413807829
505	8	LAYING	freq	NA	gyroscope	NA	NA	mean	Z	281	-0.97137948519573
506	8	LAYING	freq	NA	gyroscope	NA	NA	std	X	281	-0.981676882811388
507	8	LAYING	freq	NA	gyroscope	NA	NA	std	Y	281	-0.967017015373665
508	8	LAYING	freq	NA	gyroscope	NA	NA	std	Z	281	-0.974793202206406
509	8	LAYING	freq	NA	gyroscope	NA	magnitude	mean	NA	281	-0.965176633380783
510	8	LAYING	freq	NA	gyroscope	NA	magnitude	std	NA	281	-0.959756866441281
511	8	LAYING	freq	NA	gyroscope	jerk	magnitude	mean	NA	281	-0.979362942989324
512	8	LAYING	freq	NA	gyroscope	jerk	magnitude	std	NA	281	-0.978165387117438
513	8	LAYING	freq	body	accelerometer	NA	NA	mean	X	281	-0.973884628896797
514	8	LAYING	freq	body	accelerometer	NA	NA	mean	Y	281	-0.970772116085409
515	8	LAYING	freq	body	accelerometer	NA	NA	mean	Z	281	-0.974163260782918
516	8	LAYING	freq	body	accelerometer	NA	NA	std	X	281	-0.969779149430605
517	8	LAYING	freq	body	accelerometer	NA	NA	std	Y	281	-0.967883003345196
518	8	LAYING	freq	body	accelerometer	NA	NA	std	Z	281	-0.967397400427046
519	8	LAYING	freq	body	accelerometer	NA	magnitude	mean	NA	281	-0.966220370106762
520	8	LAYING	freq	body	accelerometer	NA	magnitude	std	NA	281	-0.961883495637011
521	8	LAYING	freq	body	accelerometer	jerk	NA	mean	X	281	-0.982429773879003
522	8	LAYING	freq	body	accelerometer	jerk	NA	mean	Y	281	-0.97801681911032
523	8	LAYING	freq	body	accelerometer	jerk	NA	mean	Z	281	-0.980942872206406
524	8	LAYING	freq	body	accelerometer	jerk	NA	std	X	281	-0.984353516014235
525	8	LAYING	freq	body	accelerometer	jerk	NA	std	Y	281	-0.978961880284697
526	8	LAYING	freq	body	accelerometer	jerk	NA	std	Z	281	-0.983673603843416
527	8	LAYING	freq	body	accelerometer	jerk	magnitude	mean	NA	281	-0.97917130975089
528	8	LAYING	freq	body	accelerometer	jerk	magnitude	std	NA	281	-0.978475456725979
529	9	WALKING_DOWNSTAIRS	time	NA	gyroscope	NA	NA	mean	X	288	-0.0655129956896701
530	9	WALKING_DOWNSTAIRS	time	NA	gyroscope	NA	NA	mean	Y	288	-0.065836995396559
531	9	WALKING_DOWNSTAIRS	time	NA	gyroscope	NA	NA	mean	Z	288	0.107887398582813
532	9	WALKING_DOWNSTAIRS	time	NA	gyroscope	NA	NA	std	X	288	-0.329405514211806
533	9	WALKING_DOWNSTAIRS	time	NA	gyroscope	NA	NA	std	Y	288	-0.312448243548611
534	9	WALKING_DOWNSTAIRS	time	NA	gyroscope	NA	NA	std	Z	288	-0.31498370625
535	9	WALKING_DOWNSTAIRS	time	NA	gyroscope	NA	magnitude	mean	NA	288	-0.130665446876736
536	9	WALKING_DOWNSTAIRS	time	NA	gyroscope	NA	magnitude	std	NA	288	-0.236981890948958
537	9	WALKING_DOWNSTAIRS	time	NA	gyroscope	jerk	NA	mean	X	288	-0.0854893565283333
538	9	WALKING_DOWNSTAIRS	time	NA	gyroscope	jerk	NA	mean	Y	288	-0.0487617592501736
539	9	WALKING_DOWNSTAIRS	time	NA	gyroscope	jerk	NA	mean	Z	288	-0.0513928936205903
540	9	WALKING_DOWNSTAIRS	time	NA	gyroscope	jerk	NA	std	X	288	-0.3259267930375
541	9	WALKING_DOWNSTAIRS	time	NA	gyroscope	jerk	NA	std	Y	288	-0.455587001053819
542	9	WALKING_DOWNSTAIRS	time	NA	gyroscope	jerk	NA	std	Z	288	-0.403216338125
543	9	WALKING_DOWNSTAIRS	time	NA	gyroscope	jerk	magnitude	mean	NA	288	-0.405965823970486
544	9	WALKING_DOWNSTAIRS	time	NA	gyroscope	jerk	magnitude	std	NA	288	-0.419203569802431
545	9	WALKING_DOWNSTAIRS	time	body	accelerometer	NA	NA	mean	X	288	0.291970407274306
546	9	WALKING_DOWNSTAIRS	time	body	accelerometer	NA	NA	mean	Y	288	-0.0170312919111424
547	9	WALKING_DOWNSTAIRS	time	body	accelerometer	NA	NA	mean	Z	288	-0.105453122040972
548	9	WALKING_DOWNSTAIRS	time	body	accelerometer	NA	NA	std	X	288	0.0541484484024306
549	9	WALKING_DOWNSTAIRS	time	body	accelerometer	NA	NA	std	Y	288	-0.0184296369744444
550	9	WALKING_DOWNSTAIRS	time	body	accelerometer	NA	NA	std	Z	288	-0.218605080080556
551	9	WALKING_DOWNSTAIRS	time	body	accelerometer	NA	magnitude	mean	NA	288	0.0451438014381944
552	9	WALKING_DOWNSTAIRS	time	body	accelerometer	NA	magnitude	std	NA	288	0.0726109346732639
553	9	WALKING_DOWNSTAIRS	time	body	accelerometer	jerk	NA	mean	X	288	0.0888018207996528
554	9	WALKING_DOWNSTAIRS	time	body	accelerometer	jerk	NA	mean	Y	288	0.00981164379548611
555	9	WALKING_DOWNSTAIRS	time	body	accelerometer	jerk	NA	mean	Z	288	-0.00715255211388889
556	9	WALKING_DOWNSTAIRS	time	body	accelerometer	jerk	NA	std	X	288	-0.0916510155532292
557	9	WALKING_DOWNSTAIRS	time	body	accelerometer	jerk	NA	std	Y	288	-0.139029208924309
558	9	WALKING_DOWNSTAIRS	time	body	accelerometer	jerk	NA	std	Z	288	-0.395813202291701
559	9	WALKING_DOWNSTAIRS	time	body	accelerometer	jerk	magnitude	mean	NA	288	-0.153827413050694
560	9	WALKING_DOWNSTAIRS	time	body	accelerometer	jerk	magnitude	std	NA	288	-0.0790169603079861
561	9	WALKING_DOWNSTAIRS	time	gravity	accelerometer	NA	NA	mean	X	288	0.93339770125
562	9	WALKING_DOWNSTAIRS	time	gravity	accelerometer	NA	NA	mean	Y	288	-0.122936716048611
563	9	WALKING_DOWNSTAIRS	time	gravity	accelerometer	NA	NA	mean	Z	288	0.0134313015680556
564	9	WALKING_DOWNSTAIRS	time	gravity	accelerometer	NA	NA	std	X	288	-0.954485877048611
565	9	WALKING_DOWNSTAIRS	time	gravity	accelerometer	NA	NA	std	Y	288	-0.9366061271875
566	9	WALKING_DOWNSTAIRS	time	gravity	accelerometer	NA	NA	std	Z	288	-0.913800950729167
567	9	WALKING_DOWNSTAIRS	time	gravity	accelerometer	NA	magnitude	mean	NA	288	0.0451438014381944
568	9	WALKING_DOWNSTAIRS	time	gravity	accelerometer	NA	magnitude	std	NA	288	0.0726109346732639
569	9	WALKING_DOWNSTAIRS	freq	NA	gyroscope	NA	NA	mean	X	288	-0.181450398429167
570	9	WALKING_DOWNSTAIRS	freq	NA	gyroscope	NA	NA	mean	Y	288	-0.298056375111458
571	9	WALKING_DOWNSTAIRS	freq	NA	gyroscope	NA	NA	mean	Z	288	-0.226963020899653
572	9	WALKING_DOWNSTAIRS	freq	NA	gyroscope	NA	NA	std	X	288	-0.380214599675694
573	9	WALKING_DOWNSTAIRS	freq	NA	gyroscope	NA	NA	std	Y	288	-0.332732766202778
574	9	WALKING_DOWNSTAIRS	freq	NA	gyroscope	NA	NA	std	Z	288	-0.410398854645833
575	9	WALKING_DOWNSTAIRS	freq	NA	gyroscope	NA	magnitude	mean	NA	288	-0.267447323433681
576	9	WALKING_DOWNSTAIRS	freq	NA	gyroscope	NA	magnitude	std	NA	288	-0.356163252432396
577	9	WALKING_DOWNSTAIRS	freq	NA	gyroscope	jerk	magnitude	mean	NA	288	-0.417959381281944
578	9	WALKING_DOWNSTAIRS	freq	NA	gyroscope	jerk	magnitude	std	NA	288	-0.463588131131944
579	9	WALKING_DOWNSTAIRS	freq	body	accelerometer	NA	NA	mean	X	288	0.00616782809138889
580	9	WALKING_DOWNSTAIRS	freq	body	accelerometer	NA	NA	mean	Y	288	-0.00952043476458333
581	9	WALKING_DOWNSTAIRS	freq	body	accelerometer	NA	NA	mean	Z	288	-0.229079961621528
582	9	WALKING_DOWNSTAIRS	freq	body	accelerometer	NA	NA	std	X	288	0.0673515760118056
583	9	WALKING_DOWNSTAIRS	freq	body	accelerometer	NA	NA	std	Y	288	-0.0875354528642708
584	9	WALKING_DOWNSTAIRS	freq	body	accelerometer	NA	NA	std	Z	288	-0.279141813429167
585	9	WALKING_DOWNSTAIRS	freq	body	accelerometer	NA	magnitude	mean	NA	288	0.0915057203784722
586	9	WALKING_DOWNSTAIRS	freq	body	accelerometer	NA	magnitude	std	NA	288	-0.108194914195833
587	9	WALKING_DOWNSTAIRS	freq	body	accelerometer	jerk	NA	mean	X	288	-0.118952309965625
588	9	WALKING_DOWNSTAIRS	freq	body	accelerometer	jerk	NA	mean	Y	288	-0.172294562544792
589	9	WALKING_DOWNSTAIRS	freq	body	accelerometer	jerk	NA	mean	Z	288	-0.335009235054167
590	9	WALKING_DOWNSTAIRS	freq	body	accelerometer	jerk	NA	std	X	288	-0.147153370390278
591	9	WALKING_DOWNSTAIRS	freq	body	accelerometer	jerk	NA	std	Y	288	-0.163677978105903
592	9	WALKING_DOWNSTAIRS	freq	body	accelerometer	jerk	NA	std	Z	288	-0.456688481613542
593	9	WALKING_DOWNSTAIRS	freq	body	accelerometer	jerk	magnitude	mean	NA	288	-0.0591343914200347
594	9	WALKING_DOWNSTAIRS	freq	body	accelerometer	jerk	magnitude	std	NA	288	-0.114010848456597
595	10	WALKING_DOWNSTAIRS	time	NA	gyroscope	NA	NA	mean	X	294	-0.0959569624095578
596	10	WALKING_DOWNSTAIRS	time	NA	gyroscope	NA	NA	mean	Y	294	-0.0615726722755102
597	10	WALKING_DOWNSTAIRS	time	NA	gyroscope	NA	NA	mean	Z	294	0.0872843447421769
598	10	WALKING_DOWNSTAIRS	time	NA	gyroscope	NA	NA	std	X	294	-0.327950020447279
599	10	WALKING_DOWNSTAIRS	time	NA	gyroscope	NA	NA	std	Y	294	-0.416013673013605
600	10	WALKING_DOWNSTAIRS	time	NA	gyroscope	NA	NA	std	Z	294	-0.294221129148503
601	10	WALKING_DOWNSTAIRS	time	NA	gyroscope	NA	magnitude	mean	NA	294	-0.16400211151983
602	10	WALKING_DOWNSTAIRS	time	NA	gyroscope	NA	magnitude	std	NA	294	-0.289429040582789
603	10	WALKING_DOWNSTAIRS	time	NA	gyroscope	jerk	NA	mean	X	294	-0.0663546737673469
604	10	WALKING_DOWNSTAIRS	time	NA	gyroscope	jerk	NA	mean	Y	294	-0.0495494048209184
605	10	WALKING_DOWNSTAIRS	time	NA	gyroscope	jerk	NA	mean	Z	294	-0.0632799829401361
606	10	WALKING_DOWNSTAIRS	time	NA	gyroscope	jerk	NA	std	X	294	-0.396370060588435
607	10	WALKING_DOWNSTAIRS	time	NA	gyroscope	jerk	NA	std	Y	294	-0.568018375006803
608	10	WALKING_DOWNSTAIRS	time	NA	gyroscope	jerk	NA	std	Z	294	-0.351388507583333
609	10	WALKING_DOWNSTAIRS	time	NA	gyroscope	jerk	magnitude	mean	NA	294	-0.489357176326531
610	10	WALKING_DOWNSTAIRS	time	NA	gyroscope	jerk	magnitude	std	NA	294	-0.508781965727891
611	10	WALKING_DOWNSTAIRS	time	body	accelerometer	NA	NA	mean	X	294	0.283283729265306
612	10	WALKING_DOWNSTAIRS	time	body	accelerometer	NA	NA	mean	Y	294	-0.0177976094891615
613	10	WALKING_DOWNSTAIRS	time	body	accelerometer	NA	NA	mean	Z	294	-0.105255083657823
614	10	WALKING_DOWNSTAIRS	time	body	accelerometer	NA	NA	std	X	294	0.0806392595030612
615	10	WALKING_DOWNSTAIRS	time	body	accelerometer	NA	NA	std	Y	294	-0.00995736086105442
616	10	WALKING_DOWNSTAIRS	time	body	accelerometer	NA	NA	std	Z	294	-0.238328218123299
617	10	WALKING_DOWNSTAIRS	time	body	accelerometer	NA	magnitude	mean	NA	294	0.0611812225217347
618	10	WALKING_DOWNSTAIRS	time	body	accelerometer	NA	magnitude	std	NA	294	0.0992094167613605
619	10	WALKING_DOWNSTAIRS	time	body	accelerometer	jerk	NA	mean	X	294	0.0964932373104422
620	10	WALKING_DOWNSTAIRS	time	body	accelerometer	jerk	NA	mean	Y	294	-0.00632716090238095
621	10	WALKING_DOWNSTAIRS	time	body	accelerometer	jerk	NA	mean	Z	294	-0.00631085067823129
622	10	WALKING_DOWNSTAIRS	time	body	accelerometer	jerk	NA	std	X	294	-0.0154109992422109
623	10	WALKING_DOWNSTAIRS	time	body	accelerometer	jerk	NA	std	Y	294	-0.0887327798071088
624	10	WALKING_DOWNSTAIRS	time	body	accelerometer	jerk	NA	std	Z	294	-0.440754703785714
625	10	WALKING_DOWNSTAIRS	time	body	accelerometer	jerk	magnitude	mean	NA	294	-0.133675074969694
626	10	WALKING_DOWNSTAIRS	time	body	accelerometer	jerk	magnitude	std	NA	294	0.00653697886292517
627	10	WALKING_DOWNSTAIRS	time	gravity	accelerometer	NA	NA	mean	X	294	0.934684782006803
628	10	WALKING_DOWNSTAIRS	time	gravity	accelerometer	NA	NA	mean	Y	294	-0.133349000274626
629	10	WALKING_DOWNSTAIRS	time	gravity	accelerometer	NA	NA	mean	Z	294	0.00940825446040816
630	10	WALKING_DOWNSTAIRS	time	gravity	accelerometer	NA	NA	std	X	294	-0.951455313027211
631	10	WALKING_DOWNSTAIRS	time	gravity	accelerometer	NA	NA	std	Y	294	-0.932382001666667
632	10	WALKING_DOWNSTAIRS	time	gravity	accelerometer	NA	NA	std	Z	294	-0.907944195884354
633	10	WALKING_DOWNSTAIRS	time	gravity	accelerometer	NA	magnitude	mean	NA	294	0.0611812225217347
634	10	WALKING_DOWNSTAIRS	time	gravity	accelerometer	NA	magnitude	std	NA	294	0.0992094167613605
635	10	WALKING_DOWNSTAIRS	freq	NA	gyroscope	NA	NA	mean	X	294	-0.224284375346633
636	10	WALKING_DOWNSTAIRS	freq	NA	gyroscope	NA	NA	mean	Y	294	-0.40814807952381
637	10	WALKING_DOWNSTAIRS	freq	NA	gyroscope	NA	NA	mean	Z	294	-0.18966314592619
638	10	WALKING_DOWNSTAIRS	freq	NA	gyroscope	NA	NA	std	X	294	-0.366420064407721
639	10	WALKING_DOWNSTAIRS	freq	NA	gyroscope	NA	NA	std	Y	294	-0.428314572812925
640	10	WALKING_DOWNSTAIRS	freq	NA	gyroscope	NA	NA	std	Z	294	-0.400761856129932
641	10	WALKING_DOWNSTAIRS	freq	NA	gyroscope	NA	magnitude	mean	NA	294	-0.352773354973571
642	10	WALKING_DOWNSTAIRS	freq	NA	gyroscope	NA	magnitude	std	NA	294	-0.373578909417347
643	10	WALKING_DOWNSTAIRS	freq	NA	gyroscope	jerk	magnitude	mean	NA	294	-0.512785776370748
644	10	WALKING_DOWNSTAIRS	freq	NA	gyroscope	jerk	magnitude	std	NA	294	-0.540093256411565
645	10	WALKING_DOWNSTAIRS	freq	body	accelerometer	NA	NA	mean	X	294	0.037274075402381
646	10	WALKING_DOWNSTAIRS	freq	body	accelerometer	NA	NA	mean	Y	294	0.0232235939312925
647	10	WALKING_DOWNSTAIRS	freq	body	accelerometer	NA	NA	mean	Z	294	-0.261515350417789
648	10	WALKING_DOWNSTAIRS	freq	body	accelerometer	NA	NA	std	X	294	0.0943467914271428
649	10	WALKING_DOWNSTAIRS	freq	body	accelerometer	NA	NA	std	Y	294	-0.093396145979932
650	10	WALKING_DOWNSTAIRS	freq	body	accelerometer	NA	NA	std	Z	294	-0.288497123881973
651	10	WALKING_DOWNSTAIRS	freq	body	accelerometer	NA	magnitude	mean	NA	294	0.133426748198299
652	10	WALKING_DOWNSTAIRS	freq	body	accelerometer	NA	magnitude	std	NA	294	-0.094060800760034
653	10	WALKING_DOWNSTAIRS	freq	body	accelerometer	jerk	NA	mean	X	294	-0.040448260577517
654	10	WALKING_DOWNSTAIRS	freq	body	accelerometer	jerk	NA	mean	Y	294	-0.116520173493537
655	10	WALKING_DOWNSTAIRS	freq	body	accelerometer	jerk	NA	mean	Z	294	-0.37949429480034
656	10	WALKING_DOWNSTAIRS	freq	body	accelerometer	jerk	NA	std	X	294	-0.0799942539908163
657	10	WALKING_DOWNSTAIRS	freq	body	accelerometer	jerk	NA	std	Y	294	-0.122658455628912
658	10	WALKING_DOWNSTAIRS	freq	body	accelerometer	jerk	NA	std	Z	294	-0.501916384421769
659	10	WALKING_DOWNSTAIRS	freq	body	accelerometer	jerk	magnitude	mean	NA	294	0.0155468687282313
660	10	WALKING_DOWNSTAIRS	freq	body	accelerometer	jerk	magnitude	std	NA	294	-0.0154645913965299
661	11	LAYING	time	NA	gyroscope	NA	NA	mean	X	40	-0.0101215219
662	11	LAYING	time	NA	gyroscope	NA	NA	mean	Y	40	-0.09467805645
663	11	LAYING	time	NA	gyroscope	NA	NA	mean	Z	40	0.117108631575
664	11	LAYING	time	NA	gyroscope	NA	NA	std	X	40	-0.983353387
665	11	LAYING	time	NA	gyroscope	NA	NA	std	Y	40	-0.966835247
666	11	LAYING	time	NA	gyroscope	NA	NA	std	Z	40	-0.98155050925
667	11	LAYING	time	NA	gyroscope	NA	magnitude	mean	NA	40	-0.95355434875
668	11	LAYING	time	NA	gyroscope	NA	magnitude	std	NA	40	-0.9632486475
669	11	LAYING	time	NA	gyroscope	jerk	NA	mean	X	40	-0.103389921975
670	11	LAYING	time	NA	gyroscope	jerk	NA	mean	Y	40	-0.03686469275
671	11	LAYING	time	NA	gyroscope	jerk	NA	mean	Z	40	-0.062559726575
672	11	LAYING	time	NA	gyroscope	jerk	NA	std	X	40	-0.9815799085
673	11	LAYING	time	NA	gyroscope	jerk	NA	std	Y	40	-0.98143980775
674	11	LAYING	time	NA	gyroscope	jerk	NA	std	Z	40	-0.9933536675
675	11	LAYING	time	NA	gyroscope	jerk	magnitude	mean	NA	40	-0.98459319375
676	11	LAYING	time	NA	gyroscope	jerk	magnitude	std	NA	40	-0.982846356
677	11	LAYING	time	body	accelerometer	NA	NA	mean	X	40	0.270406772125
678	11	LAYING	time	body	accelerometer	NA	NA	mean	Y	40	-0.0171572172925
679	11	LAYING	time	body	accelerometer	NA	NA	mean	Z	40	-0.107016696325
680	11	LAYING	time	body	accelerometer	NA	NA	std	X	40	-0.9640398385
681	11	LAYING	time	body	accelerometer	NA	NA	std	Y	40	-0.9834684105
682	11	LAYING	time	body	accelerometer	NA	NA	std	Z	40	-0.97131721975
683	11	LAYING	time	body	accelerometer	NA	magnitude	mean	NA	40	-0.9687324055
684	11	LAYING	time	body	accelerometer	NA	magnitude	std	NA	40	-0.96438840475
685	11	LAYING	time	body	accelerometer	jerk	NA	mean	X	40	0.0840974547
686	11	LAYING	time	body	accelerometer	jerk	NA	mean	Y	40	0.0108049453285
687	11	LAYING	time	body	accelerometer	jerk	NA	mean	Z	40	-0.00803559800075
688	11	LAYING	time	body	accelerometer	jerk	NA	std	X	40	-0.987064531
689	11	LAYING	time	body	accelerometer	jerk	NA	std	Y	40	-0.983169381
690	11	LAYING	time	body	accelerometer	jerk	NA	std	Z	40	-0.98526010425
691	11	LAYING	time	body	accelerometer	jerk	magnitude	mean	NA	40	-0.986212806
692	11	LAYING	time	body	accelerometer	jerk	magnitude	std	NA	40	-0.9864009135
693	11	LAYING	time	gravity	accelerometer	NA	NA	mean	X	40	-0.30792940725
694	11	LAYING	time	gravity	accelerometer	NA	NA	mean	Y	40	0.725769832
695	11	LAYING	time	gravity	accelerometer	NA	NA	mean	Z	40	0.692373835
696	11	LAYING	time	gravity	accelerometer	NA	NA	std	X	40	-0.9481143095
697	11	LAYING	time	gravity	accelerometer	NA	NA	std	Y	40	-0.994062577
698	11	LAYING	time	gravity	accelerometer	NA	NA	std	Z	40	-0.97213150125
699	11	LAYING	time	gravity	accelerometer	NA	magnitude	mean	NA	40	-0.9687324055
700	11	LAYING	time	gravity	accelerometer	NA	magnitude	std	NA	40	-0.96438840475
701	11	LAYING	freq	NA	gyroscope	NA	NA	mean	X	40	-0.9774520335
702	11	LAYING	freq	NA	gyroscope	NA	NA	mean	Y	40	-0.97089292875
703	11	LAYING	freq	NA	gyroscope	NA	NA	mean	Z	40	-0.981193362
704	11	LAYING	freq	NA	gyroscope	NA	NA	std	X	40	-0.9853249735
705	11	LAYING	freq	NA	gyroscope	NA	NA	std	Y	40	-0.96509240125
706	11	LAYING	freq	NA	gyroscope	NA	NA	std	Z	40	-0.9833917075
707	11	LAYING	freq	NA	gyroscope	NA	magnitude	mean	NA	40	-0.96964128475
708	11	LAYING	freq	NA	gyroscope	NA	magnitude	std	NA	40	-0.9654321785
709	11	LAYING	freq	NA	gyroscope	jerk	magnitude	mean	NA	40	-0.98227121475
710	11	LAYING	freq	NA	gyroscope	jerk	magnitude	std	NA	40	-0.98462758125
711	11	LAYING	freq	body	accelerometer	NA	NA	mean	X	40	-0.97244069975
712	11	LAYING	freq	body	accelerometer	NA	NA	mean	Y	40	-0.9814294485
713	11	LAYING	freq	body	accelerometer	NA	NA	mean	Z	40	-0.97536333225
714	11	LAYING	freq	body	accelerometer	NA	NA	std	X	40	-0.9610364775
715	11	LAYING	freq	body	accelerometer	NA	NA	std	Y	40	-0.98472884825
716	11	LAYING	freq	body	accelerometer	NA	NA	std	Z	40	-0.9704630725
717	11	LAYING	freq	body	accelerometer	NA	magnitude	mean	NA	40	-0.96972264025
718	11	LAYING	freq	body	accelerometer	NA	magnitude	std	NA	40	-0.96610143775
719	11	LAYING	freq	body	accelerometer	jerk	NA	mean	X	40	-0.98654908425
720	11	LAYING	freq	body	accelerometer	jerk	NA	mean	Y	40	-0.98285019275
721	11	LAYING	freq	body	accelerometer	jerk	NA	mean	Z	40	-0.98342912875
722	11	LAYING	freq	body	accelerometer	jerk	NA	std	X	40	-0.9889665195
723	11	LAYING	freq	body	accelerometer	jerk	NA	std	Y	40	-0.98484788325
724	11	LAYING	freq	body	accelerometer	jerk	NA	std	Z	40	-0.98561812125
725	11	LAYING	freq	body	accelerometer	jerk	magnitude	mean	NA	40	-0.98544193125
726	11	LAYING	freq	body	accelerometer	jerk	magnitude	std	NA	40	-0.986571428
727	11	SITTING	time	NA	gyroscope	NA	NA	mean	X	276	-0.043198172269529
728	11	SITTING	time	NA	gyroscope	NA	NA	mean	Y	276	-0.0810526428062681
729	11	SITTING	time	NA	gyroscope	NA	NA	mean	Z	276	0.0726940418060145
730	11	SITTING	time	NA	gyroscope	NA	NA	std	X	276	-0.964247469855072
731	11	SITTING	time	NA	gyroscope	NA	NA	std	Y	276	-0.952532142065217
732	11	SITTING	time	NA	gyroscope	NA	NA	std	Z	276	-0.939386225362319
733	11	SITTING	time	NA	gyroscope	NA	magnitude	mean	NA	276	-0.924275232898551
734	11	SITTING	time	NA	gyroscope	NA	magnitude	std	NA	276	-0.926262325753623
735	11	SITTING	time	NA	gyroscope	jerk	NA	mean	X	276	-0.0949146597623188
736	11	SITTING	time	NA	gyroscope	jerk	NA	mean	Y	276	-0.0383614254494203
737	11	SITTING	time	NA	gyroscope	jerk	NA	mean	Z	276	-0.0491812154813406
738	11	SITTING	time	NA	gyroscope	jerk	NA	std	X	276	-0.971722399528985
739	11	SITTING	time	NA	gyroscope	jerk	NA	std	Y	276	-0.978548608043478
740	11	SITTING	time	NA	gyroscope	jerk	NA	std	Z	276	-0.974694494927536
741	11	SITTING	time	NA	gyroscope	jerk	magnitude	mean	NA	276	-0.979161509057971
742	11	SITTING	time	NA	gyroscope	jerk	magnitude	std	NA	276	-0.973852273297101
743	11	SITTING	time	body	accelerometer	NA	NA	mean	X	276	0.270313625235507
744	11	SITTING	time	body	accelerometer	NA	NA	mean	Y	276	-0.0084702631648913
745	11	SITTING	time	body	accelerometer	NA	NA	mean	Z	276	-0.108822850259783
746	11	SITTING	time	body	accelerometer	NA	NA	std	X	276	-0.976591899384058
747	11	SITTING	time	body	accelerometer	NA	NA	std	Y	276	-0.903361664413043
748	11	SITTING	time	body	accelerometer	NA	NA	std	Z	276	-0.907267534235507
749	11	SITTING	time	body	accelerometer	NA	magnitude	mean	NA	276	-0.931414766666667
750	11	SITTING	time	body	accelerometer	NA	magnitude	std	NA	276	-0.906935328833333
751	11	SITTING	time	body	accelerometer	jerk	NA	mean	X	276	0.0741378787598913
752	11	SITTING	time	body	accelerometer	jerk	NA	mean	Y	276	0.000601076268449275
753	11	SITTING	time	body	accelerometer	jerk	NA	mean	Z	276	0.00144016238037681
754	11	SITTING	time	body	accelerometer	jerk	NA	std	X	276	-0.978775057536232
755	11	SITTING	time	body	accelerometer	jerk	NA	std	Y	276	-0.962750339202899
756	11	SITTING	time	body	accelerometer	jerk	NA	std	Z	276	-0.974545351050725
757	11	SITTING	time	body	accelerometer	jerk	magnitude	mean	NA	276	-0.974489649239131
758	11	SITTING	time	body	accelerometer	jerk	magnitude	std	NA	276	-0.968624141811594
759	11	SITTING	time	gravity	accelerometer	NA	NA	mean	X	276	0.891695181702899
760	11	SITTING	time	gravity	accelerometer	NA	NA	mean	Y	276	0.133607680983297
761	11	SITTING	time	gravity	accelerometer	NA	NA	mean	Z	276	0.165080096880507
762	11	SITTING	time	gravity	accelerometer	NA	NA	std	X	276	-0.96989153076087
763	11	SITTING	time	gravity	accelerometer	NA	NA	std	Y	276	-0.934951359869565
764	11	SITTING	time	gravity	accelerometer	NA	NA	std	Z	276	-0.923194261557971
765	11	SITTING	time	gravity	accelerometer	NA	magnitude	mean	NA	276	-0.931414766666667
766	11	SITTING	time	gravity	accelerometer	NA	magnitude	std	NA	276	-0.906935328833333
767	11	SITTING	freq	NA	gyroscope	NA	NA	mean	X	276	-0.957712540108696
768	11	SITTING	freq	NA	gyroscope	NA	NA	mean	Y	276	-0.959699832862319
769	11	SITTING	freq	NA	gyroscope	NA	NA	mean	Z	276	-0.943482017572464
770	11	SITTING	freq	NA	gyroscope	NA	NA	std	X	276	-0.966776750978261
771	11	SITTING	freq	NA	gyroscope	NA	NA	std	Y	276	-0.949344644927536
772	11	SITTING	freq	NA	gyroscope	NA	NA	std	Z	276	-0.94395329673913
773	11	SITTING	freq	NA	gyroscope	NA	magnitude	mean	NA	276	-0.945467184021739
774	11	SITTING	freq	NA	gyroscope	NA	magnitude	std	NA	276	-0.927595502710145
775	11	SITTING	freq	NA	gyroscope	jerk	magnitude	mean	NA	276	-0.975381137318841
776	11	SITTING	freq	NA	gyroscope	jerk	magnitude	std	NA	276	-0.97360113134058
777	11	SITTING	freq	body	accelerometer	NA	NA	mean	X	276	-0.975753140471014
778	11	SITTING	freq	body	accelerometer	NA	NA	mean	Y	276	-0.923975988586957
779	11	SITTING	freq	body	accelerometer	NA	NA	mean	Z	276	-0.93475418615942
780	11	SITTING	freq	body	accelerometer	NA	NA	std	X	276	-0.977161673297102
781	11	SITTING	freq	body	accelerometer	NA	NA	std	Y	276	-0.899697296646377
782	11	SITTING	freq	body	accelerometer	NA	NA	std	Z	276	-0.900815456956522
783	11	SITTING	freq	body	accelerometer	NA	magnitude	mean	NA	276	-0.927397511775362
784	11	SITTING	freq	body	accelerometer	NA	magnitude	std	NA	276	-0.911389926760869
785	11	SITTING	freq	body	accelerometer	jerk	NA	mean	X	276	-0.979157550398551
786	11	SITTING	freq	body	accelerometer	jerk	NA	mean	Y	276	-0.963434548695652
787	11	SITTING	freq	body	accelerometer	jerk	NA	mean	Z	276	-0.97115065884058
788	11	SITTING	freq	body	accelerometer	jerk	NA	std	X	276	-0.980335885326087
789	11	SITTING	freq	body	accelerometer	jerk	NA	std	Y	276	-0.964705879347826
790	11	SITTING	freq	body	accelerometer	jerk	NA	std	Z	276	-0.976591587644928
791	11	SITTING	freq	body	accelerometer	jerk	magnitude	mean	NA	276	-0.968648424456522
792	11	SITTING	freq	body	accelerometer	jerk	magnitude	std	NA	276	-0.967719244057971
793	12	WALKING_DOWNSTAIRS	time	NA	gyroscope	NA	NA	mean	X	202	-0.0926586103346535
794	12	WALKING_DOWNSTAIRS	time	NA	gyroscope	NA	NA	mean	Y	202	-0.0345103554573762
795	12	WALKING_DOWNSTAIRS	time	NA	gyroscope	NA	NA	mean	Z	202	0.10641349469599
796	12	WALKING_DOWNSTAIRS	time	NA	gyroscope	NA	NA	std	X	202	-0.397096592673267
797	12	WALKING_DOWNSTAIRS	time	NA	gyroscope	NA	NA	std	Y	202	-0.378991775267327
798	12	WALKING_DOWNSTAIRS	time	NA	gyroscope	NA	NA	std	Z	202	-0.304917207262376
799	12	WALKING_DOWNSTAIRS	time	NA	gyroscope	NA	magnitude	mean	NA	202	-0.189633006330693
800	12	WALKING_DOWNSTAIRS	time	NA	gyroscope	NA	magnitude	std	NA	202	-0.299241308010792
801	12	WALKING_DOWNSTAIRS	time	NA	gyroscope	jerk	NA	mean	X	202	-0.0728070138074257
802	12	WALKING_DOWNSTAIRS	time	NA	gyroscope	jerk	NA	mean	Y	202	-0.0502440301311881
803	12	WALKING_DOWNSTAIRS	time	NA	gyroscope	jerk	NA	mean	Z	202	-0.052376057979703
804	12	WALKING_DOWNSTAIRS	time	NA	gyroscope	jerk	NA	std	X	202	-0.445272492063861
805	12	WALKING_DOWNSTAIRS	time	NA	gyroscope	jerk	NA	std	Y	202	-0.481152043450495
806	12	WALKING_DOWNSTAIRS	time	NA	gyroscope	jerk	NA	std	Z	202	-0.379968914135644
807	12	WALKING_DOWNSTAIRS	time	NA	gyroscope	jerk	magnitude	mean	NA	202	-0.461435944886139
808	12	WALKING_DOWNSTAIRS	time	NA	gyroscope	jerk	magnitude	std	NA	202	-0.453362876359901
809	12	WALKING_DOWNSTAIRS	time	body	accelerometer	NA	NA	mean	X	202	0.2917130755
810	12	WALKING_DOWNSTAIRS	time	body	accelerometer	NA	NA	mean	Y	202	-0.0140521849933663
811	12	WALKING_DOWNSTAIRS	time	body	accelerometer	NA	NA	mean	Z	202	-0.103724636337624
812	12	WALKING_DOWNSTAIRS	time	body	accelerometer	NA	NA	std	X	202	-0.104186099113861
813	12	WALKING_DOWNSTAIRS	time	body	accelerometer	NA	NA	std	Y	202	0.0328074435858911
814	12	WALKING_DOWNSTAIRS	time	body	accelerometer	NA	NA	std	Z	202	-0.242641583980198
815	12	WALKING_DOWNSTAIRS	time	body	accelerometer	NA	magnitude	mean	NA	202	-0.0574409093950495
816	12	WALKING_DOWNSTAIRS	time	body	accelerometer	NA	magnitude	std	NA	202	-0.033901109070297
817	12	WALKING_DOWNSTAIRS	time	body	accelerometer	jerk	NA	mean	X	202	0.0830292295473515
818	12	WALKING_DOWNSTAIRS	time	body	accelerometer	jerk	NA	mean	Y	202	-0.00220118051252475
819	12	WALKING_DOWNSTAIRS	time	body	accelerometer	jerk	NA	mean	Z	202	-0.0126168331155941
820	12	WALKING_DOWNSTAIRS	time	body	accelerometer	jerk	NA	std	X	202	-0.244718349005446
821	12	WALKING_DOWNSTAIRS	time	body	accelerometer	jerk	NA	std	Y	202	-0.137955587471287
822	12	WALKING_DOWNSTAIRS	time	body	accelerometer	jerk	NA	std	Z	202	-0.415101862331683
823	12	WALKING_DOWNSTAIRS	time	body	accelerometer	jerk	magnitude	mean	NA	202	-0.242073950889604
824	12	WALKING_DOWNSTAIRS	time	body	accelerometer	jerk	magnitude	std	NA	202	-0.142912557684307
825	12	WALKING_DOWNSTAIRS	time	gravity	accelerometer	NA	NA	mean	X	202	0.936780701534653
826	12	WALKING_DOWNSTAIRS	time	gravity	accelerometer	NA	NA	mean	Y	202	-0.2074477655
827	12	WALKING_DOWNSTAIRS	time	gravity	accelerometer	NA	NA	mean	Z	202	-0.0800113528461881
828	12	WALKING_DOWNSTAIRS	time	gravity	accelerometer	NA	NA	std	X	202	-0.954547521980198
829	12	WALKING_DOWNSTAIRS	time	gravity	accelerometer	NA	NA	std	Y	202	-0.928820907079208
830	12	WALKING_DOWNSTAIRS	time	gravity	accelerometer	NA	NA	std	Z	202	-0.920372722722772
831	12	WALKING_DOWNSTAIRS	time	gravity	accelerometer	NA	magnitude	mean	NA	202	-0.0574409093950495
832	12	WALKING_DOWNSTAIRS	time	gravity	accelerometer	NA	magnitude	std	NA	202	-0.033901109070297
833	12	WALKING_DOWNSTAIRS	freq	NA	gyroscope	NA	NA	mean	X	202	-0.295799422342079
834	12	WALKING_DOWNSTAIRS	freq	NA	gyroscope	NA	NA	mean	Y	202	-0.354601642109406
835	12	WALKING_DOWNSTAIRS	freq	NA	gyroscope	NA	NA	mean	Z	202	-0.221892892622772
836	12	WALKING_DOWNSTAIRS	freq	NA	gyroscope	NA	NA	std	X	202	-0.433617322247525
837	12	WALKING_DOWNSTAIRS	freq	NA	gyroscope	NA	NA	std	Y	202	-0.401716272376733
838	12	WALKING_DOWNSTAIRS	freq	NA	gyroscope	NA	NA	std	Z	202	-0.399484901118812
839	12	WALKING_DOWNSTAIRS	freq	NA	gyroscope	NA	magnitude	mean	NA	202	-0.336931041869307
840	12	WALKING_DOWNSTAIRS	freq	NA	gyroscope	NA	magnitude	std	NA	202	-0.400354373405941
841	12	WALKING_DOWNSTAIRS	freq	NA	gyroscope	jerk	magnitude	mean	NA	202	-0.463235668890594
842	12	WALKING_DOWNSTAIRS	freq	NA	gyroscope	jerk	magnitude	std	NA	202	-0.480596075124257
843	12	WALKING_DOWNSTAIRS	freq	body	accelerometer	NA	NA	mean	X	202	-0.18040860015396
844	12	WALKING_DOWNSTAIRS	freq	body	accelerometer	NA	NA	mean	Y	202	0.000679890333663366
845	12	WALKING_DOWNSTAIRS	freq	body	accelerometer	NA	NA	mean	Z	202	-0.262131514316832
846	12	WALKING_DOWNSTAIRS	freq	body	accelerometer	NA	NA	std	X	202	-0.0779009493838614
847	12	WALKING_DOWNSTAIRS	freq	body	accelerometer	NA	NA	std	Y	202	-0.0173301431158416
848	12	WALKING_DOWNSTAIRS	freq	body	accelerometer	NA	NA	std	Z	202	-0.295206699648416
849	12	WALKING_DOWNSTAIRS	freq	body	accelerometer	NA	magnitude	mean	NA	202	-0.0260526380961386
850	12	WALKING_DOWNSTAIRS	freq	body	accelerometer	NA	magnitude	std	NA	202	-0.190492648606931
851	12	WALKING_DOWNSTAIRS	freq	body	accelerometer	jerk	NA	mean	X	202	-0.285935480246183
852	12	WALKING_DOWNSTAIRS	freq	body	accelerometer	jerk	NA	mean	Y	202	-0.190862677716832
853	12	WALKING_DOWNSTAIRS	freq	body	accelerometer	jerk	NA	mean	Z	202	-0.381068728872277
854	12	WALKING_DOWNSTAIRS	freq	body	accelerometer	jerk	NA	std	X	202	-0.269700549443134
855	12	WALKING_DOWNSTAIRS	freq	body	accelerometer	jerk	NA	std	Y	202	-0.138725540628713
856	12	WALKING_DOWNSTAIRS	freq	body	accelerometer	jerk	NA	std	Z	202	-0.447525561292079
857	12	WALKING_DOWNSTAIRS	freq	body	accelerometer	jerk	magnitude	mean	NA	202	-0.162564831082178
858	12	WALKING_DOWNSTAIRS	freq	body	accelerometer	jerk	magnitude	std	NA	202	-0.126695163073812
859	12	WALKING_UPSTAIRS	time	NA	gyroscope	NA	NA	mean	X	118	0.0700197985423729
860	12	WALKING_UPSTAIRS	time	NA	gyroscope	NA	NA	mean	Y	118	-0.152152288027966
861	12	WALKING_UPSTAIRS	time	NA	gyroscope	NA	NA	mean	Z	118	0.0386107270966102
862	12	WALKING_UPSTAIRS	time	NA	gyroscope	NA	NA	std	X	118	-0.498083699652542
863	12	WALKING_UPSTAIRS	time	NA	gyroscope	NA	NA	std	Y	118	-0.312279904395763
864	12	WALKING_UPSTAIRS	time	NA	gyroscope	NA	NA	std	Z	118	-0.486455116779661
865	12	WALKING_UPSTAIRS	time	NA	gyroscope	NA	magnitude	mean	NA	118	-0.2450044583
866	12	WALKING_UPSTAIRS	time	NA	gyroscope	NA	magnitude	std	NA	118	-0.290660138430508
867	12	WALKING_UPSTAIRS	time	NA	gyroscope	jerk	NA	mean	X	118	-0.11915345729322
868	12	WALKING_UPSTAIRS	time	NA	gyroscope	jerk	NA	mean	Y	118	-0.0433083640830508
869	12	WALKING_UPSTAIRS	time	NA	gyroscope	jerk	NA	mean	Z	118	-0.0439742545166949
870	12	WALKING_UPSTAIRS	time	NA	gyroscope	jerk	NA	std	X	118	-0.548156549661017
871	12	WALKING_UPSTAIRS	time	NA	gyroscope	jerk	NA	std	Y	118	-0.692975587542373
872	12	WALKING_UPSTAIRS	time	NA	gyroscope	jerk	NA	std	Z	118	-0.575925711016949
873	12	WALKING_UPSTAIRS	time	NA	gyroscope	jerk	magnitude	mean	NA	118	-0.623612365
874	12	WALKING_UPSTAIRS	time	NA	gyroscope	jerk	magnitude	std	NA	118	-0.680363634915254
875	12	WALKING_UPSTAIRS	time	body	accelerometer	NA	NA	mean	X	118	0.259228813313559
876	12	WALKING_UPSTAIRS	time	body	accelerometer	NA	NA	mean	Y	118	-0.0291134028473729
877	12	WALKING_UPSTAIRS	time	body	accelerometer	NA	NA	mean	Z	118	-0.103705543972881
878	12	WALKING_UPSTAIRS	time	body	accelerometer	NA	NA	std	X	118	-0.322810781338983
879	12	WALKING_UPSTAIRS	time	body	accelerometer	NA	NA	std	Y	118	0.0118938310762712
880	12	WALKING_UPSTAIRS	time	body	accelerometer	NA	NA	std	Z	118	-0.208461339566949
881	12	WALKING_UPSTAIRS	time	body	accelerometer	NA	magnitude	mean	NA	118	-0.151848750830508
882	12	WALKING_UPSTAIRS	time	body	accelerometer	NA	magnitude	std	NA	118	-0.321670328957627
883	12	WALKING_UPSTAIRS	time	body	accelerometer	jerk	NA	mean	X	118	0.0748394805542373
884	12	WALKING_UPSTAIRS	time	body	accelerometer	jerk	NA	mean	Y	118	0.0269337387344068
885	12	WALKING_UPSTAIRS	time	body	accelerometer	jerk	NA	mean	Z	118	-0.00565990165677966
886	12	WALKING_UPSTAIRS	time	body	accelerometer	jerk	NA	std	X	118	-0.444481746016949
887	12	WALKING_UPSTAIRS	time	body	accelerometer	jerk	NA	std	Y	118	-0.307605713372034
888	12	WALKING_UPSTAIRS	time	body	accelerometer	jerk	NA	std	Z	118	-0.708224289237288
889	12	WALKING_UPSTAIRS	time	body	accelerometer	jerk	magnitude	mean	NA	118	-0.445425813644068
890	12	WALKING_UPSTAIRS	time	body	accelerometer	jerk	magnitude	std	NA	118	-0.452611122118644
891	12	WALKING_UPSTAIRS	time	gravity	accelerometer	NA	NA	mean	X	118	0.891066610254237
892	12	WALKING_UPSTAIRS	time	gravity	accelerometer	NA	NA	mean	Y	118	-0.365568261525424
893	12	WALKING_UPSTAIRS	time	gravity	accelerometer	NA	NA	mean	Z	118	-0.116375888771186
894	12	WALKING_UPSTAIRS	time	gravity	accelerometer	NA	NA	std	X	118	-0.949818482711864
895	12	WALKING_UPSTAIRS	time	gravity	accelerometer	NA	NA	std	Y	118	-0.927444479661017
896	12	WALKING_UPSTAIRS	time	gravity	accelerometer	NA	NA	std	Z	118	-0.912122550338983
897	12	WALKING_UPSTAIRS	time	gravity	accelerometer	NA	magnitude	mean	NA	118	-0.151848750830508
898	12	WALKING_UPSTAIRS	time	gravity	accelerometer	NA	magnitude	std	NA	118	-0.321670328957627
899	12	WALKING_UPSTAIRS	freq	NA	gyroscope	NA	NA	mean	X	118	-0.427458438084746
900	12	WALKING_UPSTAIRS	freq	NA	gyroscope	NA	NA	mean	Y	118	-0.491596871525424
901	12	WALKING_UPSTAIRS	freq	NA	gyroscope	NA	NA	mean	Z	118	-0.427526104697458
902	12	WALKING_UPSTAIRS	freq	NA	gyroscope	NA	NA	std	X	118	-0.524576596694915
903	12	WALKING_UPSTAIRS	freq	NA	gyroscope	NA	NA	std	Y	118	-0.229486910635593
904	12	WALKING_UPSTAIRS	freq	NA	gyroscope	NA	NA	std	Z	118	-0.555052720932203
905	12	WALKING_UPSTAIRS	freq	NA	gyroscope	NA	magnitude	mean	NA	118	-0.425483654084746
906	12	WALKING_UPSTAIRS	freq	NA	gyroscope	NA	magnitude	std	NA	118	-0.327941993740678
907	12	WALKING_UPSTAIRS	freq	NA	gyroscope	jerk	magnitude	mean	NA	118	-0.674383904576271
908	12	WALKING_UPSTAIRS	freq	NA	gyroscope	jerk	magnitude	std	NA	118	-0.712153457881356
909	12	WALKING_UPSTAIRS	freq	body	accelerometer	NA	NA	mean	X	118	-0.391646567262712
910	12	WALKING_UPSTAIRS	freq	body	accelerometer	NA	NA	mean	Y	118	-0.126019796029661
911	12	WALKING_UPSTAIRS	freq	body	accelerometer	NA	NA	mean	Z	118	-0.47460305940678
912	12	WALKING_UPSTAIRS	freq	body	accelerometer	NA	NA	std	X	118	-0.29867187220339
913	12	WALKING_UPSTAIRS	freq	body	accelerometer	NA	NA	std	Y	118	0.0130308171381356
914	12	WALKING_UPSTAIRS	freq	body	accelerometer	NA	NA	std	Z	118	-0.148470046674576
915	12	WALKING_UPSTAIRS	freq	body	accelerometer	NA	magnitude	mean	NA	118	-0.327372869237288
916	12	WALKING_UPSTAIRS	freq	body	accelerometer	NA	magnitude	std	NA	118	-0.425210525254237
917	12	WALKING_UPSTAIRS	freq	body	accelerometer	jerk	NA	mean	X	118	-0.47380727720339
918	12	WALKING_UPSTAIRS	freq	body	accelerometer	jerk	NA	mean	Y	118	-0.34223938729483
919	12	WALKING_UPSTAIRS	freq	body	accelerometer	jerk	NA	mean	Z	118	-0.682475179576271
920	12	WALKING_UPSTAIRS	freq	body	accelerometer	jerk	NA	std	X	118	-0.464035380847458
921	12	WALKING_UPSTAIRS	freq	body	accelerometer	jerk	NA	std	Y	118	-0.317032215127119
922	12	WALKING_UPSTAIRS	freq	body	accelerometer	jerk	NA	std	Z	118	-0.732599549237288
923	12	WALKING_UPSTAIRS	freq	body	accelerometer	jerk	magnitude	mean	NA	118	-0.421475800423729
924	12	WALKING_UPSTAIRS	freq	body	accelerometer	jerk	magnitude	std	NA	118	-0.50020823
925	13	WALKING_UPSTAIRS	time	NA	gyroscope	NA	NA	mean	X	327	0.00363551681122324
926	13	WALKING_UPSTAIRS	time	NA	gyroscope	NA	NA	mean	Y	327	-0.0956621222146789
927	13	WALKING_UPSTAIRS	time	NA	gyroscope	NA	NA	mean	Z	327	0.0421974710655657
928	13	WALKING_UPSTAIRS	time	NA	gyroscope	NA	NA	std	X	327	-0.409859077926605
929	13	WALKING_UPSTAIRS	time	NA	gyroscope	NA	NA	std	Y	327	-0.21499822109419
930	13	WALKING_UPSTAIRS	time	NA	gyroscope	NA	NA	std	Z	327	-0.142852867641284
931	13	WALKING_UPSTAIRS	time	NA	gyroscope	NA	magnitude	mean	NA	327	-0.0722718482449541
932	13	WALKING_UPSTAIRS	time	NA	gyroscope	NA	magnitude	std	NA	327	-0.201224469161162
933	13	WALKING_UPSTAIRS	time	NA	gyroscope	jerk	NA	mean	X	327	-0.10678680061844
934	13	WALKING_UPSTAIRS	time	NA	gyroscope	jerk	NA	mean	Y	327	-0.0456951123989297
935	13	WALKING_UPSTAIRS	time	NA	gyroscope	jerk	NA	mean	Z	327	-0.0526064825359939
936	13	WALKING_UPSTAIRS	time	NA	gyroscope	jerk	NA	std	X	327	-0.486822208740367
937	13	WALKING_UPSTAIRS	time	NA	gyroscope	jerk	NA	std	Y	327	-0.591129296299694
938	13	WALKING_UPSTAIRS	time	NA	gyroscope	jerk	NA	std	Z	327	-0.479500268298288
939	13	WALKING_UPSTAIRS	time	NA	gyroscope	jerk	magnitude	mean	NA	327	-0.528912483455963
940	13	WALKING_UPSTAIRS	time	NA	gyroscope	jerk	magnitude	std	NA	327	-0.599873194792049
941	13	WALKING_UPSTAIRS	time	body	accelerometer	NA	NA	mean	X	327	0.262242297244648
942	13	WALKING_UPSTAIRS	time	body	accelerometer	NA	NA	mean	Y	327	-0.0277390241587462
943	13	WALKING_UPSTAIRS	time	body	accelerometer	NA	NA	mean	Z	327	-0.117783207517125
944	13	WALKING_UPSTAIRS	time	body	accelerometer	NA	NA	std	X	327	-0.172907016878043
945	13	WALKING_UPSTAIRS	time	body	accelerometer	NA	NA	std	Y	327	0.0812474897965138
946	13	WALKING_UPSTAIRS	time	body	accelerometer	NA	NA	std	Z	327	-0.0824353006908257
947	13	WALKING_UPSTAIRS	time	body	accelerometer	NA	magnitude	mean	NA	327	-0.0060328316058104
948	13	WALKING_UPSTAIRS	time	body	accelerometer	NA	magnitude	std	NA	327	-0.175156904648135
949	13	WALKING_UPSTAIRS	time	body	accelerometer	jerk	NA	mean	X	327	0.0778512807147401
950	13	WALKING_UPSTAIRS	time	body	accelerometer	jerk	NA	mean	Y	327	-0.000879414306055045
951	13	WALKING_UPSTAIRS	time	body	accelerometer	jerk	NA	mean	Z	327	-0.017238741545841
952	13	WALKING_UPSTAIRS	time	body	accelerometer	jerk	NA	std	X	327	-0.30068905187156
953	13	WALKING_UPSTAIRS	time	body	accelerometer	jerk	NA	std	Y	327	-0.265298683928104
954	13	WALKING_UPSTAIRS	time	body	accelerometer	jerk	NA	std	Z	327	-0.582424843168196
955	13	WALKING_UPSTAIRS	time	body	accelerometer	jerk	magnitude	mean	NA	327	-0.317666687305199
956	13	WALKING_UPSTAIRS	time	body	accelerometer	jerk	magnitude	std	NA	327	-0.339076318960245
957	13	WALKING_UPSTAIRS	time	gravity	accelerometer	NA	NA	mean	X	327	0.854936666544343
958	13	WALKING_UPSTAIRS	time	gravity	accelerometer	NA	NA	mean	Y	327	-0.305416580672783
959	13	WALKING_UPSTAIRS	time	gravity	accelerometer	NA	NA	mean	Z	327	-0.142573923508471
960	13	WALKING_UPSTAIRS	time	gravity	accelerometer	NA	NA	std	X	327	-0.94339888648318
961	13	WALKING_UPSTAIRS	time	gravity	accelerometer	NA	NA	std	Y	327	-0.920130831590214
962	13	WALKING_UPSTAIRS	time	gravity	accelerometer	NA	NA	std	Z	327	-0.897160613853211
963	13	WALKING_UPSTAIRS	time	gravity	accelerometer	NA	magnitude	mean	NA	327	-0.0060328316058104
964	13	WALKING_UPSTAIRS	time	gravity	accelerometer	NA	magnitude	std	NA	327	-0.175156904648135
965	13	WALKING_UPSTAIRS	freq	NA	gyroscope	NA	NA	mean	X	327	-0.329943297601223
966	13	WALKING_UPSTAIRS	freq	NA	gyroscope	NA	NA	mean	Y	327	-0.355077113748777
967	13	WALKING_UPSTAIRS	freq	NA	gyroscope	NA	NA	mean	Z	327	-0.196116472426605
968	13	WALKING_UPSTAIRS	freq	NA	gyroscope	NA	NA	std	X	327	-0.440584959837921
969	13	WALKING_UPSTAIRS	freq	NA	gyroscope	NA	NA	std	Y	327	-0.152580171779511
970	13	WALKING_UPSTAIRS	freq	NA	gyroscope	NA	NA	std	Z	327	-0.210846459499694
971	13	WALKING_UPSTAIRS	freq	NA	gyroscope	NA	magnitude	mean	NA	327	-0.331498994825076
972	13	WALKING_UPSTAIRS	freq	NA	gyroscope	NA	magnitude	std	NA	327	-0.256712763478593
973	13	WALKING_UPSTAIRS	freq	NA	gyroscope	jerk	magnitude	mean	NA	327	-0.592929114074924
974	13	WALKING_UPSTAIRS	freq	NA	gyroscope	jerk	magnitude	std	NA	327	-0.639696126743119
975	13	WALKING_UPSTAIRS	freq	body	accelerometer	NA	NA	mean	X	327	-0.232703486479817
976	13	WALKING_UPSTAIRS	freq	body	accelerometer	NA	NA	mean	Y	327	-0.0507215526406728
977	13	WALKING_UPSTAIRS	freq	body	accelerometer	NA	NA	mean	Z	327	-0.301714675420183
978	13	WALKING_UPSTAIRS	freq	body	accelerometer	NA	NA	std	X	327	-0.15207059337893
979	13	WALKING_UPSTAIRS	freq	body	accelerometer	NA	NA	std	Y	327	0.0753688031272171
980	13	WALKING_UPSTAIRS	freq	body	accelerometer	NA	NA	std	Z	327	-0.0480008008232416
981	13	WALKING_UPSTAIRS	freq	body	accelerometer	NA	magnitude	mean	NA	327	-0.195135048739266
982	13	WALKING_UPSTAIRS	freq	body	accelerometer	NA	magnitude	std	NA	327	-0.2946939047737
983	13	WALKING_UPSTAIRS	freq	body	accelerometer	jerk	NA	mean	X	327	-0.34077502933578
984	13	WALKING_UPSTAIRS	freq	body	accelerometer	jerk	NA	mean	Y	327	-0.30053284009633
985	13	WALKING_UPSTAIRS	freq	body	accelerometer	jerk	NA	mean	Z	327	-0.547119497125382
986	13	WALKING_UPSTAIRS	freq	body	accelerometer	jerk	NA	std	X	327	-0.322300465952446
987	13	WALKING_UPSTAIRS	freq	body	accelerometer	jerk	NA	std	Y	327	-0.277739546334557
988	13	WALKING_UPSTAIRS	freq	body	accelerometer	jerk	NA	std	Z	327	-0.616829563027523
989	13	WALKING_UPSTAIRS	freq	body	accelerometer	jerk	magnitude	mean	NA	327	-0.3029904993737
990	13	WALKING_UPSTAIRS	freq	body	accelerometer	jerk	magnitude	std	NA	327	-0.395869512933456
991	14	SITTING	time	NA	gyroscope	NA	NA	mean	X	323	-0.0420224917173375
992	14	SITTING	time	NA	gyroscope	NA	NA	mean	Y	323	-0.0700579398501548
993	14	SITTING	time	NA	gyroscope	NA	NA	mean	Z	323	0.0855922168012384
994	14	SITTING	time	NA	gyroscope	NA	NA	std	X	323	-0.985158462786378
995	14	SITTING	time	NA	gyroscope	NA	NA	std	Y	323	-0.97189520498452
996	14	SITTING	time	NA	gyroscope	NA	NA	std	Z	323	-0.96217889625387
997	14	SITTING	time	NA	gyroscope	NA	magnitude	mean	NA	323	-0.951501618885449
998	14	SITTING	time	NA	gyroscope	NA	magnitude	std	NA	323	-0.95549296625387
999	14	SITTING	time	NA	gyroscope	jerk	NA	mean	X	323	-0.094199262247678
1000	14	SITTING	time	NA	gyroscope	jerk	NA	mean	Y	323	-0.0418711746213932
1001	14	SITTING	time	NA	gyroscope	jerk	NA	mean	Z	323	-0.0528647918136223
1002	14	SITTING	time	NA	gyroscope	jerk	NA	std	X	323	-0.991519819752322
1003	14	SITTING	time	NA	gyroscope	jerk	NA	std	Y	323	-0.990018429814241
1004	14	SITTING	time	NA	gyroscope	jerk	NA	std	Z	323	-0.986574986656347
1005	14	SITTING	time	NA	gyroscope	jerk	magnitude	mean	NA	323	-0.991609797616099
1006	14	SITTING	time	NA	gyroscope	jerk	magnitude	std	NA	323	-0.988702193622291
1007	14	SITTING	time	body	accelerometer	NA	NA	mean	X	323	0.276760697331269
1008	14	SITTING	time	body	accelerometer	NA	NA	mean	Y	323	-0.0120882165170279
1009	14	SITTING	time	body	accelerometer	NA	NA	mean	Z	323	-0.104799340133127
1010	14	SITTING	time	body	accelerometer	NA	NA	std	X	323	-0.985085982755418
1011	14	SITTING	time	body	accelerometer	NA	NA	std	Y	323	-0.937764842386997
1012	14	SITTING	time	body	accelerometer	NA	NA	std	Z	323	-0.949549529349845
1013	14	SITTING	time	body	accelerometer	NA	magnitude	mean	NA	323	-0.960568609938081
1014	14	SITTING	time	body	accelerometer	NA	magnitude	std	NA	323	-0.944199659473684
1015	14	SITTING	time	body	accelerometer	jerk	NA	mean	X	323	0.0757240171578947
1016	14	SITTING	time	body	accelerometer	jerk	NA	mean	Y	323	0.00103245724963467
1017	14	SITTING	time	body	accelerometer	jerk	NA	mean	Z	323	-0.00381005225868111
1018	14	SITTING	time	body	accelerometer	jerk	NA	std	X	323	-0.986755145232198
1019	14	SITTING	time	body	accelerometer	jerk	NA	std	Y	323	-0.977178812569659
1020	14	SITTING	time	body	accelerometer	jerk	NA	std	Z	323	-0.984173106006192
1021	14	SITTING	time	body	accelerometer	jerk	magnitude	mean	NA	323	-0.984666035077399
1022	14	SITTING	time	body	accelerometer	jerk	magnitude	std	NA	323	-0.981427536749226
1023	14	SITTING	time	gravity	accelerometer	NA	NA	mean	X	323	0.906132307089783
1024	14	SITTING	time	gravity	accelerometer	NA	NA	mean	Y	323	0.0650790262349845
1025	14	SITTING	time	gravity	accelerometer	NA	NA	mean	Z	323	0.0329485212605573
1026	14	SITTING	time	gravity	accelerometer	NA	NA	std	X	323	-0.982158888266254
1027	14	SITTING	time	gravity	accelerometer	NA	NA	std	Y	323	-0.957472868934985
1028	14	SITTING	time	gravity	accelerometer	NA	NA	std	Z	323	-0.952910573504644
1029	14	SITTING	time	gravity	accelerometer	NA	magnitude	mean	NA	323	-0.960568609938081
1030	14	SITTING	time	gravity	accelerometer	NA	magnitude	std	NA	323	-0.944199659473684
1031	14	SITTING	freq	NA	gyroscope	NA	NA	mean	X	323	-0.982877526130031
1032	14	SITTING	freq	NA	gyroscope	NA	NA	mean	Y	323	-0.976827178916409
1033	14	SITTING	freq	NA	gyroscope	NA	NA	mean	Z	323	-0.964014666160991
1034	14	SITTING	freq	NA	gyroscope	NA	NA	std	X	323	-0.985968396687307
1035	14	SITTING	freq	NA	gyroscope	NA	NA	std	Y	323	-0.969521522786378
1036	14	SITTING	freq	NA	gyroscope	NA	NA	std	Z	323	-0.965192693312693
1037	14	SITTING	freq	NA	gyroscope	NA	magnitude	mean	NA	323	-0.967838657337461
1038	14	SITTING	freq	NA	gyroscope	NA	magnitude	std	NA	323	-0.955631145789474
1039	14	SITTING	freq	NA	gyroscope	jerk	magnitude	mean	NA	323	-0.989473847089783
1040	14	SITTING	freq	NA	gyroscope	jerk	magnitude	std	NA	323	-0.988222133498452
1041	14	SITTING	freq	body	accelerometer	NA	NA	mean	X	323	-0.984766559504644
1042	14	SITTING	freq	body	accelerometer	NA	NA	mean	Y	323	-0.94982508571517
1043	14	SITTING	freq	body	accelerometer	NA	NA	mean	Z	323	-0.963434722136223
1044	14	SITTING	freq	body	accelerometer	NA	NA	std	X	323	-0.985295342693498
1045	14	SITTING	freq	body	accelerometer	NA	NA	std	Y	323	-0.93563080096904
1046	14	SITTING	freq	body	accelerometer	NA	NA	std	Z	323	-0.946019722712074
1047	14	SITTING	freq	body	accelerometer	NA	magnitude	mean	NA	323	-0.956259735411765
1048	14	SITTING	freq	body	accelerometer	NA	magnitude	std	NA	323	-0.946619315566564
1049	14	SITTING	freq	body	accelerometer	jerk	NA	mean	X	323	-0.987006708947369
1050	14	SITTING	freq	body	accelerometer	jerk	NA	mean	Y	323	-0.977382093993808
1051	14	SITTING	freq	body	accelerometer	jerk	NA	mean	Z	323	-0.981801600247678
1052	14	SITTING	freq	body	accelerometer	jerk	NA	std	X	323	-0.987698171764706
1053	14	SITTING	freq	body	accelerometer	jerk	NA	std	Y	323	-0.978672564582043
1054	14	SITTING	freq	body	accelerometer	jerk	NA	std	Z	323	-0.985143731547988
1055	14	SITTING	freq	body	accelerometer	jerk	magnitude	mean	NA	323	-0.981574789009288
1056	14	SITTING	freq	body	accelerometer	jerk	magnitude	std	NA	323	-0.980163796377709
1057	15	SITTING	time	NA	gyroscope	NA	NA	mean	X	328	-0.0306971671692256
1058	15	SITTING	time	NA	gyroscope	NA	NA	mean	Y	328	-0.0651104386621951
1059	15	SITTING	time	NA	gyroscope	NA	NA	mean	Z	328	0.0820067006010061
1060	15	SITTING	time	NA	gyroscope	NA	NA	std	X	328	-0.984888688719512
1061	15	SITTING	time	NA	gyroscope	NA	NA	std	Y	328	-0.962876837134146
1062	15	SITTING	time	NA	gyroscope	NA	NA	std	Z	328	-0.965106591859756
1063	15	SITTING	time	NA	gyroscope	NA	magnitude	mean	NA	328	-0.950935894695122
1064	15	SITTING	time	NA	gyroscope	NA	magnitude	std	NA	328	-0.952951282896341
1065	15	SITTING	time	NA	gyroscope	jerk	NA	mean	X	328	-0.099185883070122
1066	15	SITTING	time	NA	gyroscope	jerk	NA	mean	Y	328	-0.0415266219529695
1067	15	SITTING	time	NA	gyroscope	jerk	NA	mean	Z	328	-0.0525322438298781
1068	15	SITTING	time	NA	gyroscope	jerk	NA	std	X	328	-0.988541606981707
1069	15	SITTING	time	NA	gyroscope	jerk	NA	std	Y	328	-0.985815726006097
1070	15	SITTING	time	NA	gyroscope	jerk	NA	std	Z	328	-0.986445030792683
1071	15	SITTING	time	NA	gyroscope	jerk	magnitude	mean	NA	328	-0.9888122575
1072	15	SITTING	time	NA	gyroscope	jerk	magnitude	std	NA	328	-0.984734239268293
1073	15	SITTING	time	body	accelerometer	NA	NA	mean	X	328	0.275671684048781
1074	15	SITTING	time	body	accelerometer	NA	NA	mean	Y	328	-0.0143174173612805
1075	15	SITTING	time	body	accelerometer	NA	NA	mean	Z	328	-0.108650250179878
1076	15	SITTING	time	body	accelerometer	NA	NA	std	X	328	-0.985449622835366
1077	15	SITTING	time	body	accelerometer	NA	NA	std	Y	328	-0.946788809464421
1078	15	SITTING	time	body	accelerometer	NA	NA	std	Z	328	-0.939658364670732
1079	15	SITTING	time	body	accelerometer	NA	magnitude	mean	NA	328	-0.959079667682927
1080	15	SITTING	time	body	accelerometer	NA	magnitude	std	NA	328	-0.947252549970122
1081	15	SITTING	time	body	accelerometer	jerk	NA	mean	X	328	0.0765505296144207
1082	15	SITTING	time	body	accelerometer	jerk	NA	mean	Y	328	0.0082797355557811
1083	15	SITTING	time	body	accelerometer	jerk	NA	mean	Z	328	-0.00172789697845732
1084	15	SITTING	time	body	accelerometer	jerk	NA	std	X	328	-0.986956101006098
1085	15	SITTING	time	body	accelerometer	jerk	NA	std	Y	328	-0.976600863079268
1086	15	SITTING	time	body	accelerometer	jerk	NA	std	Z	328	-0.983029689664634
1087	15	SITTING	time	body	accelerometer	jerk	magnitude	mean	NA	328	-0.984542956371951
1088	15	SITTING	time	body	accelerometer	jerk	magnitude	std	NA	328	-0.980249036189024
1089	15	SITTING	time	gravity	accelerometer	NA	NA	mean	X	328	0.838054001067073
1090	15	SITTING	time	gravity	accelerometer	NA	NA	mean	Y	328	0.177278578530488
1091	15	SITTING	time	gravity	accelerometer	NA	NA	mean	Z	328	0.18331744043628
1092	15	SITTING	time	gravity	accelerometer	NA	NA	std	X	328	-0.982346824664634
1093	15	SITTING	time	gravity	accelerometer	NA	NA	std	Y	328	-0.966614184716463
1094	15	SITTING	time	gravity	accelerometer	NA	NA	std	Z	328	-0.949588545338415
1095	15	SITTING	time	gravity	accelerometer	NA	magnitude	mean	NA	328	-0.959079667682927
1096	15	SITTING	time	gravity	accelerometer	NA	magnitude	std	NA	328	-0.947252549970122
1097	15	SITTING	freq	NA	gyroscope	NA	NA	mean	X	328	-0.981822036189024
1098	15	SITTING	freq	NA	gyroscope	NA	NA	mean	Y	328	-0.969515562286585
1099	15	SITTING	freq	NA	gyroscope	NA	NA	mean	Z	328	-0.967590768506098
1100	15	SITTING	freq	NA	gyroscope	NA	NA	std	X	328	-0.985921217987805
1101	15	SITTING	freq	NA	gyroscope	NA	NA	std	Y	328	-0.959763871067073
1102	15	SITTING	freq	NA	gyroscope	NA	NA	std	Z	328	-0.967615743963415
1103	15	SITTING	freq	NA	gyroscope	NA	magnitude	mean	NA	328	-0.965303782195122
1104	15	SITTING	freq	NA	gyroscope	NA	magnitude	std	NA	328	-0.953514951280488
1105	15	SITTING	freq	NA	gyroscope	jerk	magnitude	mean	NA	328	-0.985407144054878
1106	15	SITTING	freq	NA	gyroscope	jerk	magnitude	std	NA	328	-0.984674000945122
1107	15	SITTING	freq	body	accelerometer	NA	NA	mean	X	328	-0.985435711890244
1108	15	SITTING	freq	body	accelerometer	NA	NA	mean	Y	328	-0.956820152957317
1109	15	SITTING	freq	body	accelerometer	NA	NA	mean	Z	328	-0.959923064207317
1110	15	SITTING	freq	body	accelerometer	NA	NA	std	X	328	-0.985570338963415
1111	15	SITTING	freq	body	accelerometer	NA	NA	std	Y	328	-0.945094046939024
1112	15	SITTING	freq	body	accelerometer	NA	NA	std	Z	328	-0.934009534408537
1113	15	SITTING	freq	body	accelerometer	NA	magnitude	mean	NA	328	-0.959204707591463
1114	15	SITTING	freq	body	accelerometer	NA	magnitude	std	NA	328	-0.949253060088415
1115	15	SITTING	freq	body	accelerometer	jerk	NA	mean	X	328	-0.986892283292683
1116	15	SITTING	freq	body	accelerometer	jerk	NA	mean	Y	328	-0.976375096981707
1117	15	SITTING	freq	body	accelerometer	jerk	NA	mean	Z	328	-0.980188062926829
1118	15	SITTING	freq	body	accelerometer	jerk	NA	std	X	328	-0.988255743536585
1119	15	SITTING	freq	body	accelerometer	jerk	NA	std	Y	328	-0.978690758536585
1120	15	SITTING	freq	body	accelerometer	jerk	NA	std	Z	328	-0.984543626829268
1121	15	SITTING	freq	body	accelerometer	jerk	magnitude	mean	NA	328	-0.979978420792683
1122	15	SITTING	freq	body	accelerometer	jerk	magnitude	std	NA	328	-0.979508873871951
1123	16	SITTING	time	NA	gyroscope	NA	NA	mean	X	366	-0.0363410428551913
1124	16	SITTING	time	NA	gyroscope	NA	NA	mean	Y	366	-0.075870774773224
1125	16	SITTING	time	NA	gyroscope	NA	NA	mean	Z	366	0.0739619067079235
1126	16	SITTING	time	NA	gyroscope	NA	NA	std	X	366	-0.987624046994536
1127	16	SITTING	time	NA	gyroscope	NA	NA	std	Y	366	-0.975147959972678
1128	16	SITTING	time	NA	gyroscope	NA	NA	std	Z	366	-0.965224601830601
1129	16	SITTING	time	NA	gyroscope	NA	magnitude	mean	NA	366	-0.958691026885246
1130	16	SITTING	time	NA	gyroscope	NA	magnitude	std	NA	366	-0.963852753169399
1131	16	SITTING	time	NA	gyroscope	jerk	NA	mean	X	366	-0.0953696363770492
1132	16	SITTING	time	NA	gyroscope	jerk	NA	mean	Y	366	-0.040263197282623
1133	16	SITTING	time	NA	gyroscope	jerk	NA	mean	Z	366	-0.0506911068384645
1134	16	SITTING	time	NA	gyroscope	jerk	NA	std	X	366	-0.99177202636612
1135	16	SITTING	time	NA	gyroscope	jerk	NA	std	Y	366	-0.990690986120219
1136	16	SITTING	time	NA	gyroscope	jerk	NA	std	Z	366	-0.98717452295082
1137	16	SITTING	time	NA	gyroscope	jerk	magnitude	mean	NA	366	-0.991715820546448
1138	16	SITTING	time	NA	gyroscope	jerk	magnitude	std	NA	366	-0.990127155409836
1139	16	SITTING	time	body	accelerometer	NA	NA	mean	X	366	0.271024595187158
1140	16	SITTING	time	body	accelerometer	NA	NA	mean	Y	366	-0.0130908741787432
1141	16	SITTING	time	body	accelerometer	NA	NA	mean	Z	366	-0.104725644037432
1142	16	SITTING	time	body	accelerometer	NA	NA	std	X	366	-0.985612462923497
1143	16	SITTING	time	body	accelerometer	NA	NA	std	Y	366	-0.950367903879781
1144	16	SITTING	time	body	accelerometer	NA	NA	std	Z	366	-0.954706374590164
1145	16	SITTING	time	body	accelerometer	NA	magnitude	mean	NA	366	-0.964874591967213
1146	16	SITTING	time	body	accelerometer	NA	magnitude	std	NA	366	-0.953040824961749
1147	16	SITTING	time	body	accelerometer	jerk	NA	mean	X	366	0.0763558486601093
1148	16	SITTING	time	body	accelerometer	jerk	NA	mean	Y	366	0.00867376406084699
1149	16	SITTING	time	body	accelerometer	jerk	NA	mean	Z	366	-0.00272927566909836
1150	16	SITTING	time	body	accelerometer	jerk	NA	std	X	366	-0.988459812377049
1151	16	SITTING	time	body	accelerometer	jerk	NA	std	Y	366	-0.979709934617486
1152	16	SITTING	time	body	accelerometer	jerk	NA	std	Z	366	-0.986781129535519
1153	16	SITTING	time	body	accelerometer	jerk	magnitude	mean	NA	366	-0.986560054972678
1154	16	SITTING	time	body	accelerometer	jerk	magnitude	std	NA	366	-0.985292357349727
1155	16	SITTING	time	gravity	accelerometer	NA	NA	mean	X	366	0.855212064071038
1156	16	SITTING	time	gravity	accelerometer	NA	NA	mean	Y	366	0.11205022207853
1157	16	SITTING	time	gravity	accelerometer	NA	NA	mean	Z	366	0.254984438815383
1158	16	SITTING	time	gravity	accelerometer	NA	NA	std	X	366	-0.980600401120219
1159	16	SITTING	time	gravity	accelerometer	NA	NA	std	Y	366	-0.967040963122951
1160	16	SITTING	time	gravity	accelerometer	NA	NA	std	Z	366	-0.958610271256831
1161	16	SITTING	time	gravity	accelerometer	NA	magnitude	mean	NA	366	-0.964874591967213
1162	16	SITTING	time	gravity	accelerometer	NA	magnitude	std	NA	366	-0.953040824961749
1163	16	SITTING	freq	NA	gyroscope	NA	NA	mean	X	366	-0.985359050819672
1164	16	SITTING	freq	NA	gyroscope	NA	NA	mean	Y	366	-0.980152077486339
1165	16	SITTING	freq	NA	gyroscope	NA	NA	mean	Z	366	-0.967466030273224
1166	16	SITTING	freq	NA	gyroscope	NA	NA	std	X	366	-0.988371493360656
1167	16	SITTING	freq	NA	gyroscope	NA	NA	std	Y	366	-0.972748492677596
1168	16	SITTING	freq	NA	gyroscope	NA	NA	std	Z	366	-0.96774183010929
1169	16	SITTING	freq	NA	gyroscope	NA	magnitude	mean	NA	366	-0.974067526420765
1170	16	SITTING	freq	NA	gyroscope	NA	magnitude	std	NA	366	-0.963770930655738
1171	16	SITTING	freq	NA	gyroscope	jerk	magnitude	mean	NA	366	-0.990478106229508
1172	16	SITTING	freq	NA	gyroscope	jerk	magnitude	std	NA	366	-0.990062967896175
1173	16	SITTING	freq	body	accelerometer	NA	NA	mean	X	366	-0.985768748278689
1174	16	SITTING	freq	body	accelerometer	NA	NA	mean	Y	366	-0.959550827868852
1175	16	SITTING	freq	body	accelerometer	NA	NA	mean	Z	366	-0.967648512295082
1176	16	SITTING	freq	body	accelerometer	NA	NA	std	X	366	-0.985691288169399
1177	16	SITTING	freq	body	accelerometer	NA	NA	std	Y	366	-0.948551882295082
1178	16	SITTING	freq	body	accelerometer	NA	NA	std	Z	366	-0.95105236284153
1179	16	SITTING	freq	body	accelerometer	NA	magnitude	mean	NA	366	-0.963099030245902
1180	16	SITTING	freq	body	accelerometer	NA	magnitude	std	NA	366	-0.954922555718579
1181	16	SITTING	freq	body	accelerometer	jerk	NA	mean	X	366	-0.988542157540984
1182	16	SITTING	freq	body	accelerometer	jerk	NA	mean	Y	366	-0.979753392213115
1183	16	SITTING	freq	body	accelerometer	jerk	NA	mean	Z	366	-0.984544039726776
1184	16	SITTING	freq	body	accelerometer	jerk	NA	std	X	366	-0.989445610573771
1185	16	SITTING	freq	body	accelerometer	jerk	NA	std	Y	366	-0.981205607513661
1186	16	SITTING	freq	body	accelerometer	jerk	NA	std	Z	366	-0.987631289016393
1187	16	SITTING	freq	body	accelerometer	jerk	magnitude	mean	NA	366	-0.984737631065574
1188	16	SITTING	freq	body	accelerometer	jerk	magnitude	std	NA	366	-0.984900491857923
1189	17	SITTING	time	NA	gyroscope	NA	NA	mean	X	368	-0.0411059549413043
1190	17	SITTING	time	NA	gyroscope	NA	NA	mean	Y	368	-0.0717497362736413
1191	17	SITTING	time	NA	gyroscope	NA	NA	mean	Z	368	0.078715252244375
1192	17	SITTING	time	NA	gyroscope	NA	NA	std	X	368	-0.980126359130435
1193	17	SITTING	time	NA	gyroscope	NA	NA	std	Y	368	-0.967467834538043
1194	17	SITTING	time	NA	gyroscope	NA	NA	std	Z	368	-0.955219495163043
1195	17	SITTING	time	NA	gyroscope	NA	magnitude	mean	NA	368	-0.942868716413043
1196	17	SITTING	time	NA	gyroscope	NA	magnitude	std	NA	368	-0.951624997038044
1197	17	SITTING	time	NA	gyroscope	jerk	NA	mean	X	368	-0.0947652697663044
1198	17	SITTING	time	NA	gyroscope	jerk	NA	mean	Y	368	-0.0413129024472826
1199	17	SITTING	time	NA	gyroscope	jerk	NA	mean	Z	368	-0.0494852667736956
1200	17	SITTING	time	NA	gyroscope	jerk	NA	std	X	368	-0.983430574755435
1201	17	SITTING	time	NA	gyroscope	jerk	NA	std	Y	368	-0.986777712744565
1202	17	SITTING	time	NA	gyroscope	jerk	NA	std	Z	368	-0.98247406923913
1203	17	SITTING	time	NA	gyroscope	jerk	magnitude	mean	NA	368	-0.987066360163043
1204	17	SITTING	time	NA	gyroscope	jerk	magnitude	std	NA	368	-0.984494861603261
1205	17	SITTING	time	body	accelerometer	NA	NA	mean	X	368	0.270621082942935
1206	17	SITTING	time	body	accelerometer	NA	NA	mean	Y	368	-0.0140490283950543
1207	17	SITTING	time	body	accelerometer	NA	NA	mean	Z	368	-0.101512018350815
1208	17	SITTING	time	body	accelerometer	NA	NA	std	X	368	-0.982188059646739
1209	17	SITTING	time	body	accelerometer	NA	NA	std	Y	368	-0.925596483048913
1210	17	SITTING	time	body	accelerometer	NA	NA	std	Z	368	-0.93616273925
1211	17	SITTING	time	body	accelerometer	NA	magnitude	mean	NA	368	-0.950806356494565
1212	17	SITTING	time	body	accelerometer	NA	magnitude	std	NA	368	-0.934651413940217
1213	17	SITTING	time	body	accelerometer	jerk	NA	mean	X	368	0.0764965128269022
1214	17	SITTING	time	body	accelerometer	jerk	NA	mean	Y	368	0.00470212488666576
1215	17	SITTING	time	body	accelerometer	jerk	NA	mean	Z	368	-0.00626720161202935
1216	17	SITTING	time	body	accelerometer	jerk	NA	std	X	368	-0.983094849483696
1217	17	SITTING	time	body	accelerometer	jerk	NA	std	Y	368	-0.970956686141304
1218	17	SITTING	time	body	accelerometer	jerk	NA	std	Z	368	-0.982244490842391
1219	17	SITTING	time	body	accelerometer	jerk	magnitude	mean	NA	368	-0.980875153070652
1220	17	SITTING	time	body	accelerometer	jerk	magnitude	std	NA	368	-0.977187385054348
1221	17	SITTING	time	gravity	accelerometer	NA	NA	mean	X	368	0.89308451125
1222	17	SITTING	time	gravity	accelerometer	NA	NA	mean	Y	368	0.059609846813616
1223	17	SITTING	time	gravity	accelerometer	NA	NA	mean	Z	368	0.141996346342935
1224	17	SITTING	time	gravity	accelerometer	NA	NA	std	X	368	-0.978900738913044
1225	17	SITTING	time	gravity	accelerometer	NA	NA	std	Y	368	-0.95306030207337
1226	17	SITTING	time	gravity	accelerometer	NA	NA	std	Z	368	-0.946483041225543
1227	17	SITTING	time	gravity	accelerometer	NA	magnitude	mean	NA	368	-0.950806356494565
1228	17	SITTING	time	gravity	accelerometer	NA	magnitude	std	NA	368	-0.934651413940217
1229	17	SITTING	freq	NA	gyroscope	NA	NA	mean	X	368	-0.975442609021739
1230	17	SITTING	freq	NA	gyroscope	NA	NA	mean	Y	368	-0.973478374429348
1231	17	SITTING	freq	NA	gyroscope	NA	NA	mean	Z	368	-0.959407937771739
1232	17	SITTING	freq	NA	gyroscope	NA	NA	std	X	368	-0.981672340380435
1233	17	SITTING	freq	NA	gyroscope	NA	NA	std	Y	368	-0.964744799456522
1234	17	SITTING	freq	NA	gyroscope	NA	NA	std	Z	368	-0.958141650027174
1235	17	SITTING	freq	NA	gyroscope	NA	magnitude	mean	NA	368	-0.965040236657609
1236	17	SITTING	freq	NA	gyroscope	NA	magnitude	std	NA	368	-0.951730729048913
1237	17	SITTING	freq	NA	gyroscope	jerk	magnitude	mean	NA	368	-0.985044174809783
1238	17	SITTING	freq	NA	gyroscope	jerk	magnitude	std	NA	368	-0.984581049918478
1239	17	SITTING	freq	body	accelerometer	NA	NA	mean	X	368	-0.981786674565217
1240	17	SITTING	freq	body	accelerometer	NA	NA	mean	Y	368	-0.94219541388587
1241	17	SITTING	freq	body	accelerometer	NA	NA	mean	Z	368	-0.955145468701087
1242	17	SITTING	freq	body	accelerometer	NA	NA	std	X	368	-0.982587981086956
1243	17	SITTING	freq	body	accelerometer	NA	NA	std	Y	368	-0.922522911247283
1244	17	SITTING	freq	body	accelerometer	NA	NA	std	Z	368	-0.931387112122826
1245	17	SITTING	freq	body	accelerometer	NA	magnitude	mean	NA	368	-0.949089118567935
1246	17	SITTING	freq	body	accelerometer	NA	magnitude	std	NA	368	-0.937450307826087
1247	17	SITTING	freq	body	accelerometer	jerk	NA	mean	X	368	-0.983384987445652
1248	17	SITTING	freq	body	accelerometer	jerk	NA	mean	Y	368	-0.970952431711957
1249	17	SITTING	freq	body	accelerometer	jerk	NA	mean	Z	368	-0.979420879184783
1250	17	SITTING	freq	body	accelerometer	jerk	NA	std	X	368	-0.984355254103261
1251	17	SITTING	freq	body	accelerometer	jerk	NA	std	Y	368	-0.973207628423913
1252	17	SITTING	freq	body	accelerometer	jerk	NA	std	Z	368	-0.98373058076087
1253	17	SITTING	freq	body	accelerometer	jerk	magnitude	mean	NA	368	-0.977062433722826
1254	17	SITTING	freq	body	accelerometer	jerk	magnitude	std	NA	368	-0.976316015733696
1255	18	WALKING_UPSTAIRS	time	NA	gyroscope	NA	NA	mean	X	364	0.0606512922023626
1256	18	WALKING_UPSTAIRS	time	NA	gyroscope	NA	NA	mean	Y	364	-0.112069925183181
1257	18	WALKING_UPSTAIRS	time	NA	gyroscope	NA	NA	mean	Z	364	0.0252615082031044
1258	18	WALKING_UPSTAIRS	time	NA	gyroscope	NA	NA	std	X	364	-0.476124143918681
1259	18	WALKING_UPSTAIRS	time	NA	gyroscope	NA	NA	std	Y	364	-0.416965227507692
1260	18	WALKING_UPSTAIRS	time	NA	gyroscope	NA	NA	std	Z	364	-0.237973913415989
1261	18	WALKING_UPSTAIRS	time	NA	gyroscope	NA	magnitude	mean	NA	364	-0.209219696843214
1262	18	WALKING_UPSTAIRS	time	NA	gyroscope	NA	magnitude	std	NA	364	-0.376380614549176
1263	18	WALKING_UPSTAIRS	time	NA	gyroscope	jerk	NA	mean	X	364	-0.131977194267363
1264	18	WALKING_UPSTAIRS	time	NA	gyroscope	jerk	NA	mean	Y	364	-0.0329925394904945
1265	18	WALKING_UPSTAIRS	time	NA	gyroscope	jerk	NA	mean	Z	364	-0.0495553791698352
1266	18	WALKING_UPSTAIRS	time	NA	gyroscope	jerk	NA	std	X	364	-0.554549166391209
1267	18	WALKING_UPSTAIRS	time	NA	gyroscope	jerk	NA	std	Y	364	-0.670103984505494
1268	18	WALKING_UPSTAIRS	time	NA	gyroscope	jerk	NA	std	Z	364	-0.599565698571703
1269	18	WALKING_UPSTAIRS	time	NA	gyroscope	jerk	magnitude	mean	NA	364	-0.613896297508242
1270	18	WALKING_UPSTAIRS	time	NA	gyroscope	jerk	magnitude	std	NA	364	-0.682083585302198
1271	18	WALKING_UPSTAIRS	time	body	accelerometer	NA	NA	mean	X	364	0.258306996668681
1272	18	WALKING_UPSTAIRS	time	body	accelerometer	NA	NA	mean	Y	364	-0.0253701808429396
1273	18	WALKING_UPSTAIRS	time	body	accelerometer	NA	NA	mean	Z	364	-0.126780111796429
1274	18	WALKING_UPSTAIRS	time	body	accelerometer	NA	NA	std	X	364	-0.221280100529011
1275	18	WALKING_UPSTAIRS	time	body	accelerometer	NA	NA	std	Y	364	0.0016983908696978
1276	18	WALKING_UPSTAIRS	time	body	accelerometer	NA	NA	std	Z	364	-0.164130411937363
1277	18	WALKING_UPSTAIRS	time	body	accelerometer	NA	magnitude	mean	NA	364	-0.0777460654117857
1278	18	WALKING_UPSTAIRS	time	body	accelerometer	NA	magnitude	std	NA	364	-0.26679531846044
1279	18	WALKING_UPSTAIRS	time	body	accelerometer	jerk	NA	mean	X	364	0.0818259441131593
1280	18	WALKING_UPSTAIRS	time	body	accelerometer	jerk	NA	mean	Y	364	0.0212004506162363
1281	18	WALKING_UPSTAIRS	time	body	accelerometer	jerk	NA	mean	Z	364	0.00130363181057692
1282	18	WALKING_UPSTAIRS	time	body	accelerometer	jerk	NA	std	X	364	-0.36798930356044
1283	18	WALKING_UPSTAIRS	time	body	accelerometer	jerk	NA	std	Y	364	-0.31603853125467
1284	18	WALKING_UPSTAIRS	time	body	accelerometer	jerk	NA	std	Z	364	-0.586781644697802
1285	18	WALKING_UPSTAIRS	time	body	accelerometer	jerk	magnitude	mean	NA	364	-0.367837760580494
1286	18	WALKING_UPSTAIRS	time	body	accelerometer	jerk	magnitude	std	NA	364	-0.401684388888736
1287	18	WALKING_UPSTAIRS	time	gravity	accelerometer	NA	NA	mean	X	364	0.857819614697802
1288	18	WALKING_UPSTAIRS	time	gravity	accelerometer	NA	NA	mean	Y	364	-0.269994996978022
1289	18	WALKING_UPSTAIRS	time	gravity	accelerometer	NA	NA	mean	Z	364	-0.194396895776456
1290	18	WALKING_UPSTAIRS	time	gravity	accelerometer	NA	NA	std	X	364	-0.94214436771978
1291	18	WALKING_UPSTAIRS	time	gravity	accelerometer	NA	NA	std	Y	364	-0.925609083598901
1292	18	WALKING_UPSTAIRS	time	gravity	accelerometer	NA	NA	std	Z	364	-0.902213183186813
1293	18	WALKING_UPSTAIRS	time	gravity	accelerometer	NA	magnitude	mean	NA	364	-0.0777460654117857
1294	18	WALKING_UPSTAIRS	time	gravity	accelerometer	NA	magnitude	std	NA	364	-0.26679531846044
1295	18	WALKING_UPSTAIRS	freq	NA	gyroscope	NA	NA	mean	X	364	-0.398513277366483
1296	18	WALKING_UPSTAIRS	freq	NA	gyroscope	NA	NA	mean	Y	364	-0.479111662239286
1297	18	WALKING_UPSTAIRS	freq	NA	gyroscope	NA	NA	mean	Z	364	-0.314213060938462
1298	18	WALKING_UPSTAIRS	freq	NA	gyroscope	NA	NA	std	X	364	-0.505022199087912
1299	18	WALKING_UPSTAIRS	freq	NA	gyroscope	NA	NA	std	Y	364	-0.390711857964835
1300	18	WALKING_UPSTAIRS	freq	NA	gyroscope	NA	NA	std	Z	364	-0.286454370597253
1301	18	WALKING_UPSTAIRS	freq	NA	gyroscope	NA	magnitude	mean	NA	364	-0.470268682932418
1302	18	WALKING_UPSTAIRS	freq	NA	gyroscope	NA	magnitude	std	NA	364	-0.426188203302198
1303	18	WALKING_UPSTAIRS	freq	NA	gyroscope	jerk	magnitude	mean	NA	364	-0.666974104423077
1304	18	WALKING_UPSTAIRS	freq	NA	gyroscope	jerk	magnitude	std	NA	364	-0.727397098901099
1305	18	WALKING_UPSTAIRS	freq	body	accelerometer	NA	NA	mean	X	364	-0.288263577211291
1306	18	WALKING_UPSTAIRS	freq	body	accelerometer	NA	NA	mean	Y	364	-0.108662122509615
1307	18	WALKING_UPSTAIRS	freq	body	accelerometer	NA	NA	mean	Z	364	-0.32413843951978
1308	18	WALKING_UPSTAIRS	freq	body	accelerometer	NA	NA	std	X	364	-0.197866573087088
1309	18	WALKING_UPSTAIRS	freq	body	accelerometer	NA	NA	std	Y	364	-0.00874362230936813
1310	18	WALKING_UPSTAIRS	freq	body	accelerometer	NA	NA	std	Z	364	-0.15000997830294
1311	18	WALKING_UPSTAIRS	freq	body	accelerometer	NA	magnitude	mean	NA	364	-0.259813423829945
1312	18	WALKING_UPSTAIRS	freq	body	accelerometer	NA	magnitude	std	NA	364	-0.387237575711538
1313	18	WALKING_UPSTAIRS	freq	body	accelerometer	jerk	NA	mean	X	364	-0.392036325404945
1314	18	WALKING_UPSTAIRS	freq	body	accelerometer	jerk	NA	mean	Y	364	-0.338229308463462
1315	18	WALKING_UPSTAIRS	freq	body	accelerometer	jerk	NA	mean	Z	364	-0.546607587714286
1316	18	WALKING_UPSTAIRS	freq	body	accelerometer	jerk	NA	std	X	364	-0.40084021814217
1317	18	WALKING_UPSTAIRS	freq	body	accelerometer	jerk	NA	std	Y	364	-0.340304811673956
1318	18	WALKING_UPSTAIRS	freq	body	accelerometer	jerk	NA	std	Z	364	-0.626000807197802
1319	18	WALKING_UPSTAIRS	freq	body	accelerometer	jerk	magnitude	mean	NA	364	-0.358702509402473
1320	18	WALKING_UPSTAIRS	freq	body	accelerometer	jerk	magnitude	std	NA	364	-0.467280230263736
1321	19	SITTING	time	NA	gyroscope	NA	NA	mean	X	116	-0.0370690148767241
1322	19	SITTING	time	NA	gyroscope	NA	NA	mean	Y	116	-0.065781075887069
1323	19	SITTING	time	NA	gyroscope	NA	NA	mean	Z	116	0.0652127471293103
1324	19	SITTING	time	NA	gyroscope	NA	NA	std	X	116	-0.980496521293103
1325	19	SITTING	time	NA	gyroscope	NA	NA	std	Y	116	-0.967787937672414
1326	19	SITTING	time	NA	gyroscope	NA	NA	std	Z	116	-0.956698270431035
1327	19	SITTING	time	NA	gyroscope	NA	magnitude	mean	NA	116	-0.949398541034483
1328	19	SITTING	time	NA	gyroscope	NA	magnitude	std	NA	116	-0.952343908448276
1329	19	SITTING	time	NA	gyroscope	jerk	NA	mean	X	116	-0.0951647276206897
1330	19	SITTING	time	NA	gyroscope	jerk	NA	mean	Y	116	-0.04132169705
1331	19	SITTING	time	NA	gyroscope	jerk	NA	mean	Z	116	-0.0478373346336207
1332	19	SITTING	time	NA	gyroscope	jerk	NA	std	X	116	-0.982836789224138
1333	19	SITTING	time	NA	gyroscope	jerk	NA	std	Y	116	-0.983488189310345
1334	19	SITTING	time	NA	gyroscope	jerk	NA	std	Z	116	-0.983902536465517
1335	19	SITTING	time	NA	gyroscope	jerk	magnitude	mean	NA	116	-0.986082021465517
1336	19	SITTING	time	NA	gyroscope	jerk	magnitude	std	NA	116	-0.981381392672414
1337	19	SITTING	time	body	accelerometer	NA	NA	mean	X	116	0.276058588706897
1338	19	SITTING	time	body	accelerometer	NA	NA	mean	Y	116	-0.0142212888547414
1339	19	SITTING	time	body	accelerometer	NA	NA	mean	Z	116	-0.105992505681034
1340	19	SITTING	time	body	accelerometer	NA	NA	std	X	116	-0.986680652758621
1341	19	SITTING	time	body	accelerometer	NA	NA	std	Y	116	-0.948758695775862
1342	19	SITTING	time	body	accelerometer	NA	NA	std	Z	116	-0.942427298017241
1343	19	SITTING	time	body	accelerometer	NA	magnitude	mean	NA	116	-0.96076845637931
1344	19	SITTING	time	body	accelerometer	NA	magnitude	std	NA	116	-0.951939166206896
1345	19	SITTING	time	body	accelerometer	jerk	NA	mean	X	116	0.0750885513275862
1346	19	SITTING	time	body	accelerometer	jerk	NA	mean	Y	116	0.00731238882592241
1347	19	SITTING	time	body	accelerometer	jerk	NA	mean	Z	116	0.00246863373482759
1348	19	SITTING	time	body	accelerometer	jerk	NA	std	X	116	-0.984477985689655
1349	19	SITTING	time	body	accelerometer	jerk	NA	std	Y	116	-0.97440988362069
1350	19	SITTING	time	body	accelerometer	jerk	NA	std	Z	116	-0.979455370431034
1351	19	SITTING	time	body	accelerometer	jerk	magnitude	mean	NA	116	-0.98124463112069
1352	19	SITTING	time	body	accelerometer	jerk	magnitude	std	NA	116	-0.977869637413793
1353	19	SITTING	time	gravity	accelerometer	NA	NA	mean	X	116	0.930597392413793
1354	19	SITTING	time	gravity	accelerometer	NA	NA	mean	Y	116	0.122358078258621
1355	19	SITTING	time	gravity	accelerometer	NA	NA	mean	Z	116	0.0978016865905172
1356	19	SITTING	time	gravity	accelerometer	NA	NA	std	X	116	-0.988128989568966
1357	19	SITTING	time	gravity	accelerometer	NA	NA	std	Y	116	-0.972081994482759
1358	19	SITTING	time	gravity	accelerometer	NA	NA	std	Z	116	-0.950347203672414
1359	19	SITTING	time	gravity	accelerometer	NA	magnitude	mean	NA	116	-0.96076845637931
1360	19	SITTING	time	gravity	accelerometer	NA	magnitude	std	NA	116	-0.951939166206896
1361	19	SITTING	freq	NA	gyroscope	NA	NA	mean	X	116	-0.975550869827586
1362	19	SITTING	freq	NA	gyroscope	NA	NA	mean	Y	116	-0.971448305689655
1363	19	SITTING	freq	NA	gyroscope	NA	NA	mean	Z	116	-0.960739616206897
1364	19	SITTING	freq	NA	gyroscope	NA	NA	std	X	116	-0.982125044224138
1365	19	SITTING	freq	NA	gyroscope	NA	NA	std	Y	116	-0.966022877327586
1366	19	SITTING	freq	NA	gyroscope	NA	NA	std	Z	116	-0.959437737672414
1367	19	SITTING	freq	NA	gyroscope	NA	magnitude	mean	NA	116	-0.963191405086207
1368	19	SITTING	freq	NA	gyroscope	NA	magnitude	std	NA	116	-0.953898042068965
1369	19	SITTING	freq	NA	gyroscope	jerk	magnitude	mean	NA	116	-0.981994714051724
1370	19	SITTING	freq	NA	gyroscope	jerk	magnitude	std	NA	116	-0.98163390387931
1371	19	SITTING	freq	body	accelerometer	NA	NA	mean	X	116	-0.984958514913793
1372	19	SITTING	freq	body	accelerometer	NA	NA	mean	Y	116	-0.95585193887931
1373	19	SITTING	freq	body	accelerometer	NA	NA	mean	Z	116	-0.956507985172414
1374	19	SITTING	freq	body	accelerometer	NA	NA	std	X	116	-0.987494964051724
1375	19	SITTING	freq	body	accelerometer	NA	NA	std	Y	116	-0.947737430775862
1376	19	SITTING	freq	body	accelerometer	NA	NA	std	Z	116	-0.939104384741379
1377	19	SITTING	freq	body	accelerometer	NA	magnitude	mean	NA	116	-0.958806135517241
1378	19	SITTING	freq	body	accelerometer	NA	magnitude	std	NA	116	-0.955122730172414
1379	19	SITTING	freq	body	accelerometer	jerk	NA	mean	X	116	-0.984801880948276
1380	19	SITTING	freq	body	accelerometer	jerk	NA	mean	Y	116	-0.9743395975
1381	19	SITTING	freq	body	accelerometer	jerk	NA	mean	Z	116	-0.976296890258621
1382	19	SITTING	freq	body	accelerometer	jerk	NA	std	X	116	-0.985549465517241
1383	19	SITTING	freq	body	accelerometer	jerk	NA	std	Y	116	-0.976439487586207
1384	19	SITTING	freq	body	accelerometer	jerk	NA	std	Z	116	-0.981259745
1385	19	SITTING	freq	body	accelerometer	jerk	magnitude	mean	NA	116	-0.97690201362069
1386	19	SITTING	freq	body	accelerometer	jerk	magnitude	std	NA	116	-0.978110564051724
1387	19	STANDING	time	NA	gyroscope	NA	NA	mean	X	244	-0.0274645481572131
1388	19	STANDING	time	NA	gyroscope	NA	NA	mean	Y	244	-0.0575873601729508
1389	19	STANDING	time	NA	gyroscope	NA	NA	mean	Z	244	0.0727058978528689
1390	19	STANDING	time	NA	gyroscope	NA	NA	std	X	244	-0.93565929807377
1391	19	STANDING	time	NA	gyroscope	NA	NA	std	Y	244	-0.948145510327869
1392	19	STANDING	time	NA	gyroscope	NA	NA	std	Z	244	-0.938582203893443
1393	19	STANDING	time	NA	gyroscope	NA	magnitude	mean	NA	244	-0.927434899016393
1394	19	STANDING	time	NA	gyroscope	NA	magnitude	std	NA	244	-0.910540853401639
1395	19	STANDING	time	NA	gyroscope	jerk	NA	mean	X	244	-0.0970988680163934
1396	19	STANDING	time	NA	gyroscope	jerk	NA	mean	Y	244	-0.0436766614155738
1397	19	STANDING	time	NA	gyroscope	jerk	NA	mean	Z	244	-0.0465030567471311
1398	19	STANDING	time	NA	gyroscope	jerk	NA	std	X	244	-0.956378739057377
1399	19	STANDING	time	NA	gyroscope	jerk	NA	std	Y	244	-0.97214522045082
1400	19	STANDING	time	NA	gyroscope	jerk	NA	std	Z	244	-0.965703737909836
1401	19	STANDING	time	NA	gyroscope	jerk	magnitude	mean	NA	244	-0.970331561926229
1402	19	STANDING	time	NA	gyroscope	jerk	magnitude	std	NA	244	-0.963914692336066
1403	19	STANDING	time	body	accelerometer	NA	NA	mean	X	244	0.280991014262295
1404	19	STANDING	time	body	accelerometer	NA	NA	mean	Y	244	-0.0140264779411066
1405	19	STANDING	time	body	accelerometer	NA	NA	mean	Z	244	-0.105489106580418
1406	19	STANDING	time	body	accelerometer	NA	NA	std	X	244	-0.978040142663934
1407	19	STANDING	time	body	accelerometer	NA	NA	std	Y	244	-0.915246557868852
1408	19	STANDING	time	body	accelerometer	NA	NA	std	Z	244	-0.920912068770492
1409	19	STANDING	time	body	accelerometer	NA	magnitude	mean	NA	244	-0.939902839016393
1410	19	STANDING	time	body	accelerometer	NA	magnitude	std	NA	244	-0.929222896598361
1411	19	STANDING	time	body	accelerometer	jerk	NA	mean	X	244	0.0740371957372541
1412	19	STANDING	time	body	accelerometer	jerk	NA	mean	Y	244	0.00569626733323771
1413	19	STANDING	time	body	accelerometer	jerk	NA	mean	Z	244	-0.00782653242908197
1414	19	STANDING	time	body	accelerometer	jerk	NA	std	X	244	-0.971968796967213
1415	19	STANDING	time	body	accelerometer	jerk	NA	std	Y	244	-0.953375626065574
1416	19	STANDING	time	body	accelerometer	jerk	NA	std	Z	244	-0.974302807827869
1417	19	STANDING	time	body	accelerometer	jerk	magnitude	mean	NA	244	-0.969294122336066
1418	19	STANDING	time	body	accelerometer	jerk	magnitude	std	NA	244	-0.960975720819672
1419	19	STANDING	time	gravity	accelerometer	NA	NA	mean	X	244	0.946276040204918
1420	19	STANDING	time	gravity	accelerometer	NA	NA	mean	Y	244	-0.204487457522131
1421	19	STANDING	time	gravity	accelerometer	NA	NA	mean	Z	244	0.0315622475594262
1422	19	STANDING	time	gravity	accelerometer	NA	NA	std	X	244	-0.983529085245902
1423	19	STANDING	time	gravity	accelerometer	NA	NA	std	Y	244	-0.959758202131148
1424	19	STANDING	time	gravity	accelerometer	NA	NA	std	Z	244	-0.939358252418033
1425	19	STANDING	time	gravity	accelerometer	NA	magnitude	mean	NA	244	-0.939902839016393
1426	19	STANDING	time	gravity	accelerometer	NA	magnitude	std	NA	244	-0.929222896598361
1427	19	STANDING	freq	NA	gyroscope	NA	NA	mean	X	244	-0.931429978606557
1428	19	STANDING	freq	NA	gyroscope	NA	NA	mean	Y	244	-0.952713841516393
1429	19	STANDING	freq	NA	gyroscope	NA	NA	mean	Z	244	-0.938617262008197
1430	19	STANDING	freq	NA	gyroscope	NA	NA	std	X	244	-0.938044916393443
1431	19	STANDING	freq	NA	gyroscope	NA	NA	std	Y	244	-0.946252831393443
1432	19	STANDING	freq	NA	gyroscope	NA	NA	std	Z	244	-0.944601251885246
1433	19	STANDING	freq	NA	gyroscope	NA	magnitude	mean	NA	244	-0.932030616844262
1434	19	STANDING	freq	NA	gyroscope	NA	magnitude	std	NA	244	-0.913088218483607
1435	19	STANDING	freq	NA	gyroscope	jerk	magnitude	mean	NA	244	-0.966317369098361
1436	19	STANDING	freq	NA	gyroscope	jerk	magnitude	std	NA	244	-0.963258067213115
1437	19	STANDING	freq	body	accelerometer	NA	NA	mean	X	244	-0.974126293606557
1438	19	STANDING	freq	body	accelerometer	NA	NA	mean	Y	244	-0.927980260122951
1439	19	STANDING	freq	body	accelerometer	NA	NA	mean	Z	244	-0.945418465
1440	19	STANDING	freq	body	accelerometer	NA	NA	std	X	244	-0.979975627418033
1441	19	STANDING	freq	body	accelerometer	NA	NA	std	Y	244	-0.91408976122541
1442	19	STANDING	freq	body	accelerometer	NA	NA	std	Z	244	-0.914974401352459
1443	19	STANDING	freq	body	accelerometer	NA	magnitude	mean	NA	244	-0.941244573319672
1444	19	STANDING	freq	body	accelerometer	NA	magnitude	std	NA	244	-0.933857957827869
1445	19	STANDING	freq	body	accelerometer	jerk	NA	mean	X	244	-0.972290106557377
1446	19	STANDING	freq	body	accelerometer	jerk	NA	mean	Y	244	-0.954265603893443
1447	19	STANDING	freq	body	accelerometer	jerk	NA	mean	Z	244	-0.970653027377049
1448	19	STANDING	freq	body	accelerometer	jerk	NA	std	X	244	-0.974278177172131
1449	19	STANDING	freq	body	accelerometer	jerk	NA	std	Y	244	-0.955823373442623
1450	19	STANDING	freq	body	accelerometer	jerk	NA	std	Z	244	-0.976612168729508
1451	19	STANDING	freq	body	accelerometer	jerk	magnitude	mean	NA	244	-0.960413712663934
1452	19	STANDING	freq	body	accelerometer	jerk	magnitude	std	NA	244	-0.960756453196721
1453	20	WALKING_UPSTAIRS	time	NA	gyroscope	NA	NA	mean	X	354	-0.0283281969053672
1454	20	WALKING_UPSTAIRS	time	NA	gyroscope	NA	NA	mean	Y	354	-0.0550472494422034
1455	20	WALKING_UPSTAIRS	time	NA	gyroscope	NA	NA	mean	Z	354	0.0908189493784463
1456	20	WALKING_UPSTAIRS	time	NA	gyroscope	NA	NA	std	X	354	-0.479651878274011
1457	20	WALKING_UPSTAIRS	time	NA	gyroscope	NA	NA	std	Y	354	-0.37274038275339
1458	20	WALKING_UPSTAIRS	time	NA	gyroscope	NA	NA	std	Z	354	-0.246464087469209
1459	20	WALKING_UPSTAIRS	time	NA	gyroscope	NA	magnitude	mean	NA	354	-0.205247254608531
1460	20	WALKING_UPSTAIRS	time	NA	gyroscope	NA	magnitude	std	NA	354	-0.364761830078531
1461	20	WALKING_UPSTAIRS	time	NA	gyroscope	jerk	NA	mean	X	354	-0.102109240539831
1462	20	WALKING_UPSTAIRS	time	NA	gyroscope	jerk	NA	mean	Y	354	-0.0385656689776554
1463	20	WALKING_UPSTAIRS	time	NA	gyroscope	jerk	NA	mean	Z	354	-0.0589746047533898
1464	20	WALKING_UPSTAIRS	time	NA	gyroscope	jerk	NA	std	X	354	-0.570955092231638
1465	20	WALKING_UPSTAIRS	time	NA	gyroscope	jerk	NA	std	Y	354	-0.724625643305085
1466	20	WALKING_UPSTAIRS	time	NA	gyroscope	jerk	NA	std	Z	354	-0.588923430706215
1467	20	WALKING_UPSTAIRS	time	NA	gyroscope	jerk	magnitude	mean	NA	354	-0.654565197711864
1468	20	WALKING_UPSTAIRS	time	NA	gyroscope	jerk	magnitude	std	NA	354	-0.702358812062147
1469	20	WALKING_UPSTAIRS	time	body	accelerometer	NA	NA	mean	X	354	0.266255605121469
1470	20	WALKING_UPSTAIRS	time	body	accelerometer	NA	NA	mean	Y	354	-0.0261166605702542
1471	20	WALKING_UPSTAIRS	time	body	accelerometer	NA	NA	mean	Z	354	-0.12550021134435
1472	20	WALKING_UPSTAIRS	time	body	accelerometer	NA	NA	std	X	354	-0.241876542902542
1473	20	WALKING_UPSTAIRS	time	body	accelerometer	NA	NA	std	Y	354	-0.0763695079631073
1474	20	WALKING_UPSTAIRS	time	body	accelerometer	NA	NA	std	Z	354	-0.171033709951469
1475	20	WALKING_UPSTAIRS	time	body	accelerometer	NA	magnitude	mean	NA	354	-0.126630338122542
1476	20	WALKING_UPSTAIRS	time	body	accelerometer	NA	magnitude	std	NA	354	-0.224325897450565
1477	20	WALKING_UPSTAIRS	time	body	accelerometer	jerk	NA	mean	X	354	0.0735806037830226
1478	20	WALKING_UPSTAIRS	time	body	accelerometer	jerk	NA	mean	Y	354	0.00118524859875706
1479	20	WALKING_UPSTAIRS	time	body	accelerometer	jerk	NA	mean	Z	354	0.00173046857909605
1480	20	WALKING_UPSTAIRS	time	body	accelerometer	jerk	NA	std	X	354	-0.35806125470113
1481	20	WALKING_UPSTAIRS	time	body	accelerometer	jerk	NA	std	Y	354	-0.384992599640113
1482	20	WALKING_UPSTAIRS	time	body	accelerometer	jerk	NA	std	Z	354	-0.673107265762712
1483	20	WALKING_UPSTAIRS	time	body	accelerometer	jerk	magnitude	mean	NA	354	-0.428571068983051
1484	20	WALKING_UPSTAIRS	time	body	accelerometer	jerk	magnitude	std	NA	354	-0.379408811708757
1485	20	WALKING_UPSTAIRS	time	gravity	accelerometer	NA	NA	mean	X	354	0.894959751836158
1486	20	WALKING_UPSTAIRS	time	gravity	accelerometer	NA	NA	mean	Y	354	-0.272242417231638
1487	20	WALKING_UPSTAIRS	time	gravity	accelerometer	NA	NA	mean	Z	354	-0.0958419952422655
1488	20	WALKING_UPSTAIRS	time	gravity	accelerometer	NA	NA	std	X	354	-0.952094290677966
1489	20	WALKING_UPSTAIRS	time	gravity	accelerometer	NA	NA	std	Y	354	-0.929702304745763
1490	20	WALKING_UPSTAIRS	time	gravity	accelerometer	NA	NA	std	Z	354	-0.89441644279661
1491	20	WALKING_UPSTAIRS	time	gravity	accelerometer	NA	magnitude	mean	NA	354	-0.126630338122542
1492	20	WALKING_UPSTAIRS	time	gravity	accelerometer	NA	magnitude	std	NA	354	-0.224325897450565
1493	20	WALKING_UPSTAIRS	freq	NA	gyroscope	NA	NA	mean	X	354	-0.410441164352542
1494	20	WALKING_UPSTAIRS	freq	NA	gyroscope	NA	NA	mean	Y	354	-0.512512553418079
1495	20	WALKING_UPSTAIRS	freq	NA	gyroscope	NA	NA	mean	Z	354	-0.330130603141243
1496	20	WALKING_UPSTAIRS	freq	NA	gyroscope	NA	NA	std	X	354	-0.505900319739266
1497	20	WALKING_UPSTAIRS	freq	NA	gyroscope	NA	NA	std	Y	354	-0.311595309688418
1498	20	WALKING_UPSTAIRS	freq	NA	gyroscope	NA	NA	std	Z	354	-0.292653651360452
1499	20	WALKING_UPSTAIRS	freq	NA	gyroscope	NA	magnitude	mean	NA	354	-0.501430999419774
1500	20	WALKING_UPSTAIRS	freq	NA	gyroscope	NA	magnitude	std	NA	354	-0.391940830222881
1501	20	WALKING_UPSTAIRS	freq	NA	gyroscope	jerk	magnitude	mean	NA	354	-0.698549486610169
1502	20	WALKING_UPSTAIRS	freq	NA	gyroscope	jerk	magnitude	std	NA	354	-0.729417380536723
1503	20	WALKING_UPSTAIRS	freq	body	accelerometer	NA	NA	mean	X	354	-0.296589382275141
1504	20	WALKING_UPSTAIRS	freq	body	accelerometer	NA	NA	mean	Y	354	-0.185820259088446
1505	20	WALKING_UPSTAIRS	freq	body	accelerometer	NA	NA	mean	Z	354	-0.399616406462429
1506	20	WALKING_UPSTAIRS	freq	body	accelerometer	NA	NA	std	X	354	-0.223257613541384
1507	20	WALKING_UPSTAIRS	freq	body	accelerometer	NA	NA	std	Y	354	-0.0828013721373729
1508	20	WALKING_UPSTAIRS	freq	body	accelerometer	NA	NA	std	Z	354	-0.127101118988249
1509	20	WALKING_UPSTAIRS	freq	body	accelerometer	NA	magnitude	mean	NA	354	-0.250604750144068
1510	20	WALKING_UPSTAIRS	freq	body	accelerometer	NA	magnitude	std	NA	354	-0.332346058245763
1511	20	WALKING_UPSTAIRS	freq	body	accelerometer	jerk	NA	mean	X	354	-0.377272128387853
1512	20	WALKING_UPSTAIRS	freq	body	accelerometer	jerk	NA	mean	Y	354	-0.399594768454407
1513	20	WALKING_UPSTAIRS	freq	body	accelerometer	jerk	NA	mean	Z	354	-0.637194580988701
1514	20	WALKING_UPSTAIRS	freq	body	accelerometer	jerk	NA	std	X	354	-0.397071452531073
1515	20	WALKING_UPSTAIRS	freq	body	accelerometer	jerk	NA	std	Y	354	-0.412633497618644
1516	20	WALKING_UPSTAIRS	freq	body	accelerometer	jerk	NA	std	Z	354	-0.708394404491525
1517	20	WALKING_UPSTAIRS	freq	body	accelerometer	jerk	magnitude	mean	NA	354	-0.356635522125141
1518	20	WALKING_UPSTAIRS	freq	body	accelerometer	jerk	magnitude	std	NA	354	-0.415070832260452
1519	21	STANDING	time	NA	gyroscope	NA	NA	mean	X	408	-0.0265404853875245
1520	21	STANDING	time	NA	gyroscope	NA	NA	mean	Y	408	-0.0657421980120098
1521	21	STANDING	time	NA	gyroscope	NA	NA	mean	Z	408	0.080894298564951
1522	21	STANDING	time	NA	gyroscope	NA	NA	std	X	408	-0.96779318375
1523	21	STANDING	time	NA	gyroscope	NA	NA	std	Y	408	-0.971567931617647
1524	21	STANDING	time	NA	gyroscope	NA	NA	std	Z	408	-0.970709643039216
1525	21	STANDING	time	NA	gyroscope	NA	magnitude	mean	NA	408	-0.960969372009804
1526	21	STANDING	time	NA	gyroscope	NA	magnitude	std	NA	408	-0.953044016544118
1527	21	STANDING	time	NA	gyroscope	jerk	NA	mean	X	408	-0.0999249494595588
1528	21	STANDING	time	NA	gyroscope	jerk	NA	mean	Y	408	-0.0427980981958333
1529	21	STANDING	time	NA	gyroscope	jerk	NA	mean	Z	408	-0.0526543888521814
1530	21	STANDING	time	NA	gyroscope	jerk	NA	std	X	408	-0.979528337622549
1531	21	STANDING	time	NA	gyroscope	jerk	NA	std	Y	408	-0.986622678088235
1532	21	STANDING	time	NA	gyroscope	jerk	NA	std	Z	408	-0.985900748676471
1533	21	STANDING	time	NA	gyroscope	jerk	magnitude	mean	NA	408	-0.986805759142157
1534	21	STANDING	time	NA	gyroscope	jerk	magnitude	std	NA	408	-0.983220171764706
1535	21	STANDING	time	body	accelerometer	NA	NA	mean	X	408	0.279883929583333
1536	21	STANDING	time	body	accelerometer	NA	NA	mean	Y	408	-0.0164811326966176
1537	21	STANDING	time	body	accelerometer	NA	NA	mean	Z	408	-0.106490145962525
1538	21	STANDING	time	body	accelerometer	NA	NA	std	X	408	-0.986758177720588
1539	21	STANDING	time	body	accelerometer	NA	NA	std	Y	408	-0.946755694093137
1540	21	STANDING	time	body	accelerometer	NA	NA	std	Z	408	-0.948199030661765
1541	21	STANDING	time	body	accelerometer	NA	magnitude	mean	NA	408	-0.963150912941176
1542	21	STANDING	time	body	accelerometer	NA	magnitude	std	NA	408	-0.953929866892157
1543	21	STANDING	time	body	accelerometer	jerk	NA	mean	X	408	0.0746138371983088
1544	21	STANDING	time	body	accelerometer	jerk	NA	mean	Y	408	0.00823849451226961
1545	21	STANDING	time	body	accelerometer	jerk	NA	mean	Z	408	-0.00415768745446324
1546	21	STANDING	time	body	accelerometer	jerk	NA	std	X	408	-0.986902089656863
1547	21	STANDING	time	body	accelerometer	jerk	NA	std	Y	408	-0.975655937598039
1548	21	STANDING	time	body	accelerometer	jerk	NA	std	Z	408	-0.983500859044118
1549	21	STANDING	time	body	accelerometer	jerk	magnitude	mean	NA	408	-0.983904480857843
1550	21	STANDING	time	body	accelerometer	jerk	magnitude	std	NA	408	-0.981273283578431
1551	21	STANDING	time	gravity	accelerometer	NA	NA	mean	X	408	0.933392199166667
1552	21	STANDING	time	gravity	accelerometer	NA	NA	mean	Y	408	-0.159189646466569
1553	21	STANDING	time	gravity	accelerometer	NA	NA	mean	Z	408	-0.108750801666667
1554	21	STANDING	time	gravity	accelerometer	NA	NA	std	X	408	-0.985761710490196
1555	21	STANDING	time	gravity	accelerometer	NA	NA	std	Y	408	-0.971477225392157
1556	21	STANDING	time	gravity	accelerometer	NA	NA	std	Z	408	-0.954837480808824
1557	21	STANDING	time	gravity	accelerometer	NA	magnitude	mean	NA	408	-0.963150912941176
1558	21	STANDING	time	gravity	accelerometer	NA	magnitude	std	NA	408	-0.953929866892157
1559	21	STANDING	freq	NA	gyroscope	NA	NA	mean	X	408	-0.965925077156863
1560	21	STANDING	freq	NA	gyroscope	NA	NA	mean	Y	408	-0.97510225497549
1561	21	STANDING	freq	NA	gyroscope	NA	NA	mean	Z	408	-0.972467931004902
1562	21	STANDING	freq	NA	gyroscope	NA	NA	std	X	408	-0.968797858406863
1563	21	STANDING	freq	NA	gyroscope	NA	NA	std	Y	408	-0.969891669583333
1564	21	STANDING	freq	NA	gyroscope	NA	NA	std	Z	408	-0.972862112401961
1565	21	STANDING	freq	NA	gyroscope	NA	magnitude	mean	NA	408	-0.965866833088235
1566	21	STANDING	freq	NA	gyroscope	NA	magnitude	std	NA	408	-0.953305571838235
1567	21	STANDING	freq	NA	gyroscope	jerk	magnitude	mean	NA	408	-0.984352590367647
1568	21	STANDING	freq	NA	gyroscope	jerk	magnitude	std	NA	408	-0.982712903137255
1569	21	STANDING	freq	body	accelerometer	NA	NA	mean	X	408	-0.98587827379902
1570	21	STANDING	freq	body	accelerometer	NA	NA	mean	Y	408	-0.956883413186275
1571	21	STANDING	freq	body	accelerometer	NA	NA	mean	Z	408	-0.963268693014706
1572	21	STANDING	freq	body	accelerometer	NA	NA	std	X	408	-0.987251832009804
1573	21	STANDING	freq	body	accelerometer	NA	NA	std	Y	408	-0.944709573039216
1574	21	STANDING	freq	body	accelerometer	NA	NA	std	Z	408	-0.944186519313726
1575	21	STANDING	freq	body	accelerometer	NA	magnitude	mean	NA	408	-0.964463835294118
1576	21	STANDING	freq	body	accelerometer	NA	magnitude	std	NA	408	-0.955382331130882
1577	21	STANDING	freq	body	accelerometer	jerk	NA	mean	X	408	-0.986833232254902
1578	21	STANDING	freq	body	accelerometer	jerk	NA	mean	Y	408	-0.975834315122549
1579	21	STANDING	freq	body	accelerometer	jerk	NA	mean	Z	408	-0.980867673137255
1580	21	STANDING	freq	body	accelerometer	jerk	NA	std	X	408	-0.988214597720588
1581	21	STANDING	freq	body	accelerometer	jerk	NA	std	Y	408	-0.977320622941176
1582	21	STANDING	freq	body	accelerometer	jerk	NA	std	Z	408	-0.98478774370098
1583	21	STANDING	freq	body	accelerometer	jerk	magnitude	mean	NA	408	-0.980891777990196
1584	21	STANDING	freq	body	accelerometer	jerk	magnitude	std	NA	408	-0.980677714142157
1585	22	STANDING	time	NA	gyroscope	NA	NA	mean	X	321	-0.0254191240414019
1586	22	STANDING	time	NA	gyroscope	NA	NA	mean	Y	321	-0.0680874699005607
1587	22	STANDING	time	NA	gyroscope	NA	NA	mean	Z	321	0.0778932356199377
1588	22	STANDING	time	NA	gyroscope	NA	NA	std	X	321	-0.947193890031153
1589	22	STANDING	time	NA	gyroscope	NA	NA	std	Y	321	-0.961771448847352
1590	22	STANDING	time	NA	gyroscope	NA	NA	std	Z	321	-0.961680421713396
1591	22	STANDING	time	NA	gyroscope	NA	magnitude	mean	NA	321	-0.944387131090343
1592	22	STANDING	time	NA	gyroscope	NA	magnitude	std	NA	321	-0.932768709906542
1593	22	STANDING	time	NA	gyroscope	jerk	NA	mean	X	321	-0.099847063952648
1594	22	STANDING	time	NA	gyroscope	jerk	NA	mean	Y	321	-0.0413041445831776
1595	22	STANDING	time	NA	gyroscope	jerk	NA	mean	Z	321	-0.0532327089788785
1596	22	STANDING	time	NA	gyroscope	jerk	NA	std	X	321	-0.969334342087227
1597	22	STANDING	time	NA	gyroscope	jerk	NA	std	Y	321	-0.981362539376947
1598	22	STANDING	time	NA	gyroscope	jerk	NA	std	Z	321	-0.980430803457944
1599	22	STANDING	time	NA	gyroscope	jerk	magnitude	mean	NA	321	-0.980149047663551
1600	22	STANDING	time	NA	gyroscope	jerk	magnitude	std	NA	321	-0.97592294105919
1601	22	STANDING	time	body	accelerometer	NA	NA	mean	X	321	0.278041442990654
1602	22	STANDING	time	body	accelerometer	NA	NA	mean	Y	321	-0.0162919697409969
1603	22	STANDING	time	body	accelerometer	NA	NA	mean	Z	321	-0.108584790978847
1604	22	STANDING	time	body	accelerometer	NA	NA	std	X	321	-0.98577913741433
1605	22	STANDING	time	body	accelerometer	NA	NA	std	Y	321	-0.943929466510903
1606	22	STANDING	time	body	accelerometer	NA	NA	std	Z	321	-0.946861680747664
1607	22	STANDING	time	body	accelerometer	NA	magnitude	mean	NA	321	-0.960008077507788
1608	22	STANDING	time	body	accelerometer	NA	magnitude	std	NA	321	-0.955332201028037
1609	22	STANDING	time	body	accelerometer	jerk	NA	mean	X	321	0.0753569075202492
1610	22	STANDING	time	body	accelerometer	jerk	NA	mean	Y	321	0.010111489402757
1611	22	STANDING	time	body	accelerometer	jerk	NA	mean	Z	321	-0.0032776132114704
1612	22	STANDING	time	body	accelerometer	jerk	NA	std	X	321	-0.980740624579439
1613	22	STANDING	time	body	accelerometer	jerk	NA	std	Y	321	-0.965719141557632
1614	22	STANDING	time	body	accelerometer	jerk	NA	std	Z	321	-0.980528638504673
1615	22	STANDING	time	body	accelerometer	jerk	magnitude	mean	NA	321	-0.97846166317757
1616	22	STANDING	time	body	accelerometer	jerk	magnitude	std	NA	321	-0.972364379875389
1617	22	STANDING	time	gravity	accelerometer	NA	NA	mean	X	321	0.919059055109034
1618	22	STANDING	time	gravity	accelerometer	NA	NA	mean	Y	321	-0.228973896664798
1619	22	STANDING	time	gravity	accelerometer	NA	NA	mean	Z	321	-0.0391433425827414
1620	22	STANDING	time	gravity	accelerometer	NA	NA	std	X	321	-0.988328218971963
1621	22	STANDING	time	gravity	accelerometer	NA	NA	std	Y	321	-0.976765248161994
1622	22	STANDING	time	gravity	accelerometer	NA	NA	std	Z	321	-0.958523098847352
1623	22	STANDING	time	gravity	accelerometer	NA	magnitude	mean	NA	321	-0.960008077507788
1624	22	STANDING	time	gravity	accelerometer	NA	magnitude	std	NA	321	-0.955332201028037
1625	22	STANDING	freq	NA	gyroscope	NA	NA	mean	X	321	-0.94675898800623
1626	22	STANDING	freq	NA	gyroscope	NA	NA	mean	Y	321	-0.966333729719626
1627	22	STANDING	freq	NA	gyroscope	NA	NA	mean	Z	321	-0.963981698099689
1628	22	STANDING	freq	NA	gyroscope	NA	NA	std	X	321	-0.948300216168224
1629	22	STANDING	freq	NA	gyroscope	NA	NA	std	Y	321	-0.959689494641745
1630	22	STANDING	freq	NA	gyroscope	NA	NA	std	Z	321	-0.964613274859813
1631	22	STANDING	freq	NA	gyroscope	NA	magnitude	mean	NA	321	-0.951476231588785
1632	22	STANDING	freq	NA	gyroscope	NA	magnitude	std	NA	321	-0.933341601806854
1633	22	STANDING	freq	NA	gyroscope	jerk	magnitude	mean	NA	321	-0.976779554112149
1634	22	STANDING	freq	NA	gyroscope	jerk	magnitude	std	NA	321	-0.976328858411215
1635	22	STANDING	freq	body	accelerometer	NA	NA	mean	X	321	-0.98289328211838
1636	22	STANDING	freq	body	accelerometer	NA	NA	mean	Y	321	-0.949861931682243
1637	22	STANDING	freq	body	accelerometer	NA	NA	mean	Z	321	-0.960649488193146
1638	22	STANDING	freq	body	accelerometer	NA	NA	std	X	321	-0.98720546317757
1639	22	STANDING	freq	body	accelerometer	NA	NA	std	Y	321	-0.943879410436137
1640	22	STANDING	freq	body	accelerometer	NA	NA	std	Z	321	-0.943339074953271
1641	22	STANDING	freq	body	accelerometer	NA	magnitude	mean	NA	321	-0.961544205140187
1642	22	STANDING	freq	body	accelerometer	NA	magnitude	std	NA	321	-0.958353597819315
1643	22	STANDING	freq	body	accelerometer	jerk	NA	mean	X	321	-0.980699131464174
1644	22	STANDING	freq	body	accelerometer	jerk	NA	mean	Y	321	-0.965811104797508
1645	22	STANDING	freq	body	accelerometer	jerk	NA	mean	Z	321	-0.977310582305296
1646	22	STANDING	freq	body	accelerometer	jerk	NA	std	X	321	-0.982604555700935
1647	22	STANDING	freq	body	accelerometer	jerk	NA	std	Y	321	-0.968276776635514
1648	22	STANDING	freq	body	accelerometer	jerk	NA	std	Z	321	-0.982456679252336
1649	22	STANDING	freq	body	accelerometer	jerk	magnitude	mean	NA	321	-0.972024363084112
1650	22	STANDING	freq	body	accelerometer	jerk	magnitude	std	NA	321	-0.971797716105919
1651	23	STANDING	time	NA	gyroscope	NA	NA	mean	X	372	-0.025995840534328
1652	23	STANDING	time	NA	gyroscope	NA	NA	mean	Y	372	-0.0701054925344086
1653	23	STANDING	time	NA	gyroscope	NA	NA	mean	Z	372	0.0807155642524194
1654	23	STANDING	time	NA	gyroscope	NA	NA	std	X	372	-0.95131767688172
1655	23	STANDING	time	NA	gyroscope	NA	NA	std	Y	372	-0.971532080430108
1656	23	STANDING	time	NA	gyroscope	NA	NA	std	Z	372	-0.96414560655914
1657	23	STANDING	time	NA	gyroscope	NA	magnitude	mean	NA	372	-0.951625729731183
1658	23	STANDING	time	NA	gyroscope	NA	magnitude	std	NA	372	-0.943833213225806
1659	23	STANDING	time	NA	gyroscope	jerk	NA	mean	X	372	-0.100155168716129
1660	23	STANDING	time	NA	gyroscope	jerk	NA	mean	Y	372	-0.0420467314419355
1661	23	STANDING	time	NA	gyroscope	jerk	NA	mean	Z	372	-0.0532010939308333
1662	23	STANDING	time	NA	gyroscope	jerk	NA	std	X	372	-0.9692252875
1663	23	STANDING	time	NA	gyroscope	jerk	NA	std	Y	372	-0.986431329462366
1664	23	STANDING	time	NA	gyroscope	jerk	NA	std	Z	372	-0.98021414110215
1665	23	STANDING	time	NA	gyroscope	jerk	magnitude	mean	NA	372	-0.982288016908602
1666	23	STANDING	time	NA	gyroscope	jerk	magnitude	std	NA	372	-0.979961403010753
1667	23	STANDING	time	body	accelerometer	NA	NA	mean	X	372	0.278828651854839
1668	23	STANDING	time	body	accelerometer	NA	NA	mean	Y	372	-0.0167977281776075
1669	23	STANDING	time	body	accelerometer	NA	NA	mean	Z	372	-0.108267862838172
1670	23	STANDING	time	body	accelerometer	NA	NA	std	X	372	-0.988843561182796
1671	23	STANDING	time	body	accelerometer	NA	NA	std	Y	372	-0.936001795967742
1672	23	STANDING	time	body	accelerometer	NA	NA	std	Z	372	-0.948806904677419
1673	23	STANDING	time	body	accelerometer	NA	magnitude	mean	NA	372	-0.960610868387097
1674	23	STANDING	time	body	accelerometer	NA	magnitude	std	NA	372	-0.954616990349462
1675	23	STANDING	time	body	accelerometer	jerk	NA	mean	X	372	0.0751573972123656
1676	23	STANDING	time	body	accelerometer	jerk	NA	mean	Y	372	0.0101148521319059
1677	23	STANDING	time	body	accelerometer	jerk	NA	mean	Z	372	-0.0018974095096828
1678	23	STANDING	time	body	accelerometer	jerk	NA	std	X	372	-0.984349626693548
1679	23	STANDING	time	body	accelerometer	jerk	NA	std	Y	372	-0.967883784381721
1680	23	STANDING	time	body	accelerometer	jerk	NA	std	Z	372	-0.983229959569892
1681	23	STANDING	time	body	accelerometer	jerk	magnitude	mean	NA	372	-0.980636512365591
1682	23	STANDING	time	body	accelerometer	jerk	magnitude	std	NA	372	-0.977210209973118
1683	23	STANDING	time	gravity	accelerometer	NA	NA	mean	X	372	0.962043215860215
1684	23	STANDING	time	gravity	accelerometer	NA	NA	mean	Y	372	-0.161186928963441
1685	23	STANDING	time	gravity	accelerometer	NA	NA	mean	Z	372	0.0264846203618116
1686	23	STANDING	time	gravity	accelerometer	NA	NA	std	X	372	-0.993397036854839
1687	23	STANDING	time	gravity	accelerometer	NA	NA	std	Y	372	-0.973034421209677
1688	23	STANDING	time	gravity	accelerometer	NA	NA	std	Z	372	-0.96397086672043
1689	23	STANDING	time	gravity	accelerometer	NA	magnitude	mean	NA	372	-0.960610868387097
1690	23	STANDING	time	gravity	accelerometer	NA	magnitude	std	NA	372	-0.954616990349462
1691	23	STANDING	freq	NA	gyroscope	NA	NA	mean	X	372	-0.949037305295699
1692	23	STANDING	freq	NA	gyroscope	NA	NA	mean	Y	372	-0.974991462043011
1693	23	STANDING	freq	NA	gyroscope	NA	NA	mean	Z	372	-0.964985898897849
1694	23	STANDING	freq	NA	gyroscope	NA	NA	std	X	372	-0.952612203763441
1695	23	STANDING	freq	NA	gyroscope	NA	NA	std	Y	372	-0.969851461747312
1696	23	STANDING	freq	NA	gyroscope	NA	NA	std	Z	372	-0.96719539905914
1697	23	STANDING	freq	NA	gyroscope	NA	magnitude	mean	NA	372	-0.958766084569893
1698	23	STANDING	freq	NA	gyroscope	NA	magnitude	std	NA	372	-0.944319971129032
1699	23	STANDING	freq	NA	gyroscope	jerk	magnitude	mean	NA	372	-0.981220656989247
1700	23	STANDING	freq	NA	gyroscope	jerk	magnitude	std	NA	372	-0.979549015134409
1701	23	STANDING	freq	body	accelerometer	NA	NA	mean	X	372	-0.986430985913978
1702	23	STANDING	freq	body	accelerometer	NA	NA	mean	Y	372	-0.946644989946237
1703	23	STANDING	freq	body	accelerometer	NA	NA	mean	Z	372	-0.96433910344086
1704	23	STANDING	freq	body	accelerometer	NA	NA	std	X	372	-0.990033387311828
1705	23	STANDING	freq	body	accelerometer	NA	NA	std	Y	372	-0.934316990806452
1706	23	STANDING	freq	body	accelerometer	NA	NA	std	Z	372	-0.94452021766129
1707	23	STANDING	freq	body	accelerometer	NA	magnitude	mean	NA	372	-0.962876970322581
1708	23	STANDING	freq	body	accelerometer	NA	magnitude	std	NA	372	-0.956817735295699
1709	23	STANDING	freq	body	accelerometer	jerk	NA	mean	X	372	-0.984358713252688
1710	23	STANDING	freq	body	accelerometer	jerk	NA	mean	Y	372	-0.968199629462366
1711	23	STANDING	freq	body	accelerometer	jerk	NA	mean	Z	372	-0.980298660188172
1712	23	STANDING	freq	body	accelerometer	jerk	NA	std	X	372	-0.985813452983871
1713	23	STANDING	freq	body	accelerometer	jerk	NA	std	Y	372	-0.96992097016129
1714	23	STANDING	freq	body	accelerometer	jerk	NA	std	Z	372	-0.984833840430107
1715	23	STANDING	freq	body	accelerometer	jerk	magnitude	mean	NA	372	-0.976828958709677
1716	23	STANDING	freq	body	accelerometer	jerk	magnitude	std	NA	372	-0.976656159139785
1717	24	WALKING_UPSTAIRS	time	NA	gyroscope	NA	NA	mean	X	381	-0.0287743229792651
1718	24	WALKING_UPSTAIRS	time	NA	gyroscope	NA	NA	mean	Y	381	-0.0712942827221522
1719	24	WALKING_UPSTAIRS	time	NA	gyroscope	NA	NA	mean	Z	381	0.0860270438503937
1720	24	WALKING_UPSTAIRS	time	NA	gyroscope	NA	NA	std	X	381	-0.488403341644882
1721	24	WALKING_UPSTAIRS	time	NA	gyroscope	NA	NA	std	Y	381	-0.36906830492832
1722	24	WALKING_UPSTAIRS	time	NA	gyroscope	NA	NA	std	Z	381	-0.231374738942992
1723	24	WALKING_UPSTAIRS	time	NA	gyroscope	NA	magnitude	mean	NA	381	-0.19398733210105
1724	24	WALKING_UPSTAIRS	time	NA	gyroscope	NA	magnitude	std	NA	381	-0.405041759668819
1725	24	WALKING_UPSTAIRS	time	NA	gyroscope	jerk	NA	mean	X	381	-0.104838854828793
1726	24	WALKING_UPSTAIRS	time	NA	gyroscope	jerk	NA	mean	Y	381	-0.0365194978208661
1727	24	WALKING_UPSTAIRS	time	NA	gyroscope	jerk	NA	mean	Z	381	-0.0521749528052493
1728	24	WALKING_UPSTAIRS	time	NA	gyroscope	jerk	NA	std	X	381	-0.593673607795276
1729	24	WALKING_UPSTAIRS	time	NA	gyroscope	jerk	NA	std	Y	381	-0.668939452204724
1730	24	WALKING_UPSTAIRS	time	NA	gyroscope	jerk	NA	std	Z	381	-0.563492680585827
1731	24	WALKING_UPSTAIRS	time	NA	gyroscope	jerk	magnitude	mean	NA	381	-0.622335493674541
1732	24	WALKING_UPSTAIRS	time	NA	gyroscope	jerk	magnitude	std	NA	381	-0.672548633254593
1733	24	WALKING_UPSTAIRS	time	body	accelerometer	NA	NA	mean	X	381	0.26341857383727
1734	24	WALKING_UPSTAIRS	time	body	accelerometer	NA	NA	mean	Y	381	-0.0237256487250202
1735	24	WALKING_UPSTAIRS	time	body	accelerometer	NA	NA	mean	Z	381	-0.117541135365354
1736	24	WALKING_UPSTAIRS	time	body	accelerometer	NA	NA	std	X	381	-0.279930843408399
1737	24	WALKING_UPSTAIRS	time	body	accelerometer	NA	NA	std	Y	381	-0.0690525163212598
1738	24	WALKING_UPSTAIRS	time	body	accelerometer	NA	NA	std	Z	381	-0.259974154555381
1739	24	WALKING_UPSTAIRS	time	body	accelerometer	NA	magnitude	mean	NA	381	-0.161935882768661
1740	24	WALKING_UPSTAIRS	time	body	accelerometer	NA	magnitude	std	NA	381	-0.299341134357155
1741	24	WALKING_UPSTAIRS	time	body	accelerometer	jerk	NA	mean	X	381	0.0744080512986877
1742	24	WALKING_UPSTAIRS	time	body	accelerometer	jerk	NA	mean	Y	381	0.00655267951128609
1743	24	WALKING_UPSTAIRS	time	body	accelerometer	jerk	NA	mean	Z	381	-0.0106585077391076
1744	24	WALKING_UPSTAIRS	time	body	accelerometer	jerk	NA	std	X	381	-0.382407304464567
1745	24	WALKING_UPSTAIRS	time	body	accelerometer	jerk	NA	std	Y	381	-0.392100161186352
1746	24	WALKING_UPSTAIRS	time	body	accelerometer	jerk	NA	std	Z	381	-0.635943293018373
1747	24	WALKING_UPSTAIRS	time	body	accelerometer	jerk	magnitude	mean	NA	381	-0.42405480383727
1748	24	WALKING_UPSTAIRS	time	body	accelerometer	jerk	magnitude	std	NA	381	-0.394352328666142
1749	24	WALKING_UPSTAIRS	time	gravity	accelerometer	NA	NA	mean	X	381	0.885125907112861
1750	24	WALKING_UPSTAIRS	time	gravity	accelerometer	NA	NA	mean	Y	381	-0.254031799209974
1751	24	WALKING_UPSTAIRS	time	gravity	accelerometer	NA	NA	mean	Z	381	-0.137390928795441
1752	24	WALKING_UPSTAIRS	time	gravity	accelerometer	NA	NA	std	X	381	-0.953951368530184
1753	24	WALKING_UPSTAIRS	time	gravity	accelerometer	NA	NA	std	Y	381	-0.925696910944882
1754	24	WALKING_UPSTAIRS	time	gravity	accelerometer	NA	NA	std	Z	381	-0.909478407795276
1755	24	WALKING_UPSTAIRS	time	gravity	accelerometer	NA	magnitude	mean	NA	381	-0.161935882768661
1756	24	WALKING_UPSTAIRS	time	gravity	accelerometer	NA	magnitude	std	NA	381	-0.299341134357155
1757	24	WALKING_UPSTAIRS	freq	NA	gyroscope	NA	NA	mean	X	381	-0.420033127401312
1758	24	WALKING_UPSTAIRS	freq	NA	gyroscope	NA	NA	mean	Y	381	-0.470190603987139
1759	24	WALKING_UPSTAIRS	freq	NA	gyroscope	NA	NA	mean	Z	381	-0.295355295775066
1760	24	WALKING_UPSTAIRS	freq	NA	gyroscope	NA	NA	std	X	381	-0.51386883483727
1761	24	WALKING_UPSTAIRS	freq	NA	gyroscope	NA	NA	std	Y	381	-0.32329583824147
1762	24	WALKING_UPSTAIRS	freq	NA	gyroscope	NA	NA	std	Z	381	-0.28503946233937
1763	24	WALKING_UPSTAIRS	freq	NA	gyroscope	NA	magnitude	mean	NA	381	-0.491262041832021
1764	24	WALKING_UPSTAIRS	freq	NA	gyroscope	NA	magnitude	std	NA	381	-0.45241374512336
1765	24	WALKING_UPSTAIRS	freq	NA	gyroscope	jerk	magnitude	mean	NA	381	-0.665338654671916
1766	24	WALKING_UPSTAIRS	freq	NA	gyroscope	jerk	magnitude	std	NA	381	-0.706981457769029
1767	24	WALKING_UPSTAIRS	freq	body	accelerometer	NA	NA	mean	X	381	-0.31703702643727
1768	24	WALKING_UPSTAIRS	freq	body	accelerometer	NA	NA	mean	Y	381	-0.187858074233176
1769	24	WALKING_UPSTAIRS	freq	body	accelerometer	NA	NA	mean	Z	381	-0.404897644367454
1770	24	WALKING_UPSTAIRS	freq	body	accelerometer	NA	NA	std	X	381	-0.26754872419895
1771	24	WALKING_UPSTAIRS	freq	body	accelerometer	NA	NA	std	Y	381	-0.0718244393189501
1772	24	WALKING_UPSTAIRS	freq	body	accelerometer	NA	NA	std	Z	381	-0.245511834453202
1773	24	WALKING_UPSTAIRS	freq	body	accelerometer	NA	magnitude	mean	NA	381	-0.31193196716273
1774	24	WALKING_UPSTAIRS	freq	body	accelerometer	NA	magnitude	std	NA	381	-0.402631512958005
1775	24	WALKING_UPSTAIRS	freq	body	accelerometer	jerk	NA	mean	X	381	-0.415754248024934
1776	24	WALKING_UPSTAIRS	freq	body	accelerometer	jerk	NA	mean	Y	381	-0.419462199226509
1777	24	WALKING_UPSTAIRS	freq	body	accelerometer	jerk	NA	mean	Z	381	-0.602536443097113
1778	24	WALKING_UPSTAIRS	freq	body	accelerometer	jerk	NA	std	X	381	-0.404166043317953
1779	24	WALKING_UPSTAIRS	freq	body	accelerometer	jerk	NA	std	Y	381	-0.404229382085564
1780	24	WALKING_UPSTAIRS	freq	body	accelerometer	jerk	NA	std	Z	381	-0.668531062650919
1781	24	WALKING_UPSTAIRS	freq	body	accelerometer	jerk	magnitude	mean	NA	381	-0.369786356657218
1782	24	WALKING_UPSTAIRS	freq	body	accelerometer	jerk	magnitude	std	NA	381	-0.432850955013123
1783	25	STANDING	time	NA	gyroscope	NA	NA	mean	X	409	-0.0282102179470416
1784	25	STANDING	time	NA	gyroscope	NA	NA	mean	Y	409	-0.0724304093337897
1785	25	STANDING	time	NA	gyroscope	NA	NA	mean	Z	409	0.0858949365589242
1786	25	STANDING	time	NA	gyroscope	NA	NA	std	X	409	-0.929400534572127
1787	25	STANDING	time	NA	gyroscope	NA	NA	std	Y	409	-0.957665999364303
1788	25	STANDING	time	NA	gyroscope	NA	NA	std	Z	409	-0.950177551687042
1789	25	STANDING	time	NA	gyroscope	NA	magnitude	mean	NA	409	-0.928913580953545
1790	25	STANDING	time	NA	gyroscope	NA	magnitude	std	NA	409	-0.911656712738386
1791	25	STANDING	time	NA	gyroscope	jerk	NA	mean	X	409	-0.100324498951589
1792	25	STANDING	time	NA	gyroscope	jerk	NA	mean	Y	409	-0.0418082484486553
1793	25	STANDING	time	NA	gyroscope	jerk	NA	mean	Z	409	-0.0530327791038142
1794	25	STANDING	time	NA	gyroscope	jerk	NA	std	X	409	-0.962764696136919
1795	25	STANDING	time	NA	gyroscope	jerk	NA	std	Y	409	-0.977487206210269
1796	25	STANDING	time	NA	gyroscope	jerk	NA	std	Z	409	-0.973152905819071
1797	25	STANDING	time	NA	gyroscope	jerk	magnitude	mean	NA	409	-0.975682507701711
1798	25	STANDING	time	NA	gyroscope	jerk	magnitude	std	NA	409	-0.968669395672372
1799	25	STANDING	time	body	accelerometer	NA	NA	mean	X	409	0.27849004606357
1800	25	STANDING	time	body	accelerometer	NA	NA	mean	Y	409	-0.0163479762784597
1801	25	STANDING	time	body	accelerometer	NA	NA	mean	Z	409	-0.105087363663325
1802	25	STANDING	time	body	accelerometer	NA	NA	std	X	409	-0.983185765892421
1803	25	STANDING	time	body	accelerometer	NA	NA	std	Y	409	-0.924617024792176
1804	25	STANDING	time	body	accelerometer	NA	NA	std	Z	409	-0.934746448207824
1805	25	STANDING	time	body	accelerometer	NA	magnitude	mean	NA	409	-0.948795875061125
1806	25	STANDING	time	body	accelerometer	NA	magnitude	std	NA	409	-0.940283751491442
1807	25	STANDING	time	body	accelerometer	jerk	NA	mean	X	409	0.0754754284259169
1808	25	STANDING	time	body	accelerometer	jerk	NA	mean	Y	409	0.00806534766049389
1809	25	STANDING	time	body	accelerometer	jerk	NA	mean	Z	409	-0.00647319271239853
1810	25	STANDING	time	body	accelerometer	jerk	NA	std	X	409	-0.976477176381418
1811	25	STANDING	time	body	accelerometer	jerk	NA	std	Y	409	-0.959326847603912
1812	25	STANDING	time	body	accelerometer	jerk	NA	std	Z	409	-0.978078058435208
1813	25	STANDING	time	body	accelerometer	jerk	magnitude	mean	NA	409	-0.9740196400978
1814	25	STANDING	time	body	accelerometer	jerk	magnitude	std	NA	409	-0.967048774963325
1815	25	STANDING	time	gravity	accelerometer	NA	NA	mean	X	409	0.947237873716381
1816	25	STANDING	time	gravity	accelerometer	NA	NA	mean	Y	409	-0.166687672362665
1817	25	STANDING	time	gravity	accelerometer	NA	NA	mean	Z	409	0.0324328801353056
1818	25	STANDING	time	gravity	accelerometer	NA	NA	std	X	409	-0.987972162273839
1819	25	STANDING	time	gravity	accelerometer	NA	NA	std	Y	409	-0.965516574596577
1820	25	STANDING	time	gravity	accelerometer	NA	NA	std	Z	409	-0.947554833679707
1821	25	STANDING	time	gravity	accelerometer	NA	magnitude	mean	NA	409	-0.948795875061125
1822	25	STANDING	time	gravity	accelerometer	NA	magnitude	std	NA	409	-0.940283751491442
1823	25	STANDING	freq	NA	gyroscope	NA	NA	mean	X	409	-0.928912521124694
1824	25	STANDING	freq	NA	gyroscope	NA	NA	mean	Y	409	-0.961644686845966
1825	25	STANDING	freq	NA	gyroscope	NA	NA	mean	Z	409	-0.951307767310513
1826	25	STANDING	freq	NA	gyroscope	NA	NA	std	X	409	-0.930772275623472
1827	25	STANDING	freq	NA	gyroscope	NA	NA	std	Y	409	-0.955995857432763
1828	25	STANDING	freq	NA	gyroscope	NA	NA	std	Z	409	-0.954481818312959
1829	25	STANDING	freq	NA	gyroscope	NA	magnitude	mean	NA	409	-0.935214766870416
1830	25	STANDING	freq	NA	gyroscope	NA	magnitude	std	NA	409	-0.91291650391198
1831	25	STANDING	freq	NA	gyroscope	jerk	magnitude	mean	NA	409	-0.969849047383863
1832	25	STANDING	freq	NA	gyroscope	jerk	magnitude	std	NA	409	-0.969177887139364
1833	25	STANDING	freq	body	accelerometer	NA	NA	mean	X	409	-0.979240357286064
1834	25	STANDING	freq	body	accelerometer	NA	NA	mean	Y	409	-0.936016045525672
1835	25	STANDING	freq	body	accelerometer	NA	NA	mean	Z	409	-0.95441434403423
1836	25	STANDING	freq	body	accelerometer	NA	NA	std	X	409	-0.985231541613692
1837	25	STANDING	freq	body	accelerometer	NA	NA	std	Y	409	-0.923414518168704
1838	25	STANDING	freq	body	accelerometer	NA	NA	std	Z	409	-0.929601694718826
1839	25	STANDING	freq	body	accelerometer	NA	magnitude	mean	NA	409	-0.949796424132029
1840	25	STANDING	freq	body	accelerometer	NA	magnitude	std	NA	409	-0.944266243422983
1841	25	STANDING	freq	body	accelerometer	jerk	NA	mean	X	409	-0.976420743569682
1842	25	STANDING	freq	body	accelerometer	jerk	NA	mean	Y	409	-0.959195291760391
1843	25	STANDING	freq	body	accelerometer	jerk	NA	mean	Z	409	-0.974299135134474
1844	25	STANDING	freq	body	accelerometer	jerk	NA	std	X	409	-0.978819387652812
1845	25	STANDING	freq	body	accelerometer	jerk	NA	std	Y	409	-0.962633063740831
1846	25	STANDING	freq	body	accelerometer	jerk	NA	std	Z	409	-0.980606374327628
1847	25	STANDING	freq	body	accelerometer	jerk	magnitude	mean	NA	409	-0.966581535892421
1848	25	STANDING	freq	body	accelerometer	jerk	magnitude	std	NA	409	-0.966780076503667
1849	26	STANDING	time	NA	gyroscope	NA	NA	mean	X	152	-0.0261042895973026
1850	26	STANDING	time	NA	gyroscope	NA	NA	mean	Y	152	-0.0699034502461184
1851	26	STANDING	time	NA	gyroscope	NA	NA	mean	Z	152	0.0779279474131579
1852	26	STANDING	time	NA	gyroscope	NA	NA	std	X	152	-0.927318019605263
1853	26	STANDING	time	NA	gyroscope	NA	NA	std	Y	152	-0.938511880197368
1854	26	STANDING	time	NA	gyroscope	NA	NA	std	Z	152	-0.94141660506579
1855	26	STANDING	time	NA	gyroscope	NA	magnitude	mean	NA	152	-0.922989439802632
1856	26	STANDING	time	NA	gyroscope	NA	magnitude	std	NA	152	-0.903159209736842
1857	26	STANDING	time	NA	gyroscope	jerk	NA	mean	X	152	-0.100533917506579
1858	26	STANDING	time	NA	gyroscope	jerk	NA	mean	Y	152	-0.0430137770197368
1859	26	STANDING	time	NA	gyroscope	jerk	NA	mean	Z	152	-0.0519438530328947
1860	26	STANDING	time	NA	gyroscope	jerk	NA	std	X	152	-0.950914299539474
1861	26	STANDING	time	NA	gyroscope	jerk	NA	std	Y	152	-0.966278058552632
1862	26	STANDING	time	NA	gyroscope	jerk	NA	std	Z	152	-0.967323822763158
1863	26	STANDING	time	NA	gyroscope	jerk	magnitude	mean	NA	152	-0.966617598947368
1864	26	STANDING	time	NA	gyroscope	jerk	magnitude	std	NA	152	-0.955222175263158
1865	26	STANDING	time	body	accelerometer	NA	NA	mean	X	152	0.279171831447368
1866	26	STANDING	time	body	accelerometer	NA	NA	mean	Y	152	-0.016275877594
1867	26	STANDING	time	body	accelerometer	NA	NA	mean	Z	152	-0.104310735447368
1868	26	STANDING	time	body	accelerometer	NA	NA	std	X	152	-0.978194360592105
1869	26	STANDING	time	body	accelerometer	NA	NA	std	Y	152	-0.910544313355263
1870	26	STANDING	time	body	accelerometer	NA	NA	std	Z	152	-0.925640297631579
1871	26	STANDING	time	body	accelerometer	NA	magnitude	mean	NA	152	-0.939455403618421
1872	26	STANDING	time	body	accelerometer	NA	magnitude	std	NA	152	-0.932936223223684
1873	26	STANDING	time	body	accelerometer	jerk	NA	mean	X	152	0.0755139462763158
1874	26	STANDING	time	body	accelerometer	jerk	NA	mean	Y	152	0.0113446558065789
1875	26	STANDING	time	body	accelerometer	jerk	NA	mean	Z	152	-0.00474942434971053
1876	26	STANDING	time	body	accelerometer	jerk	NA	std	X	152	-0.971241193092105
1877	26	STANDING	time	body	accelerometer	jerk	NA	std	Y	152	-0.953504720394737
1878	26	STANDING	time	body	accelerometer	jerk	NA	std	Z	152	-0.969452539210526
1879	26	STANDING	time	body	accelerometer	jerk	magnitude	mean	NA	152	-0.968349680394737
1880	26	STANDING	time	body	accelerometer	jerk	magnitude	std	NA	152	-0.957747934802632
1881	26	STANDING	time	gravity	accelerometer	NA	NA	mean	X	152	0.937016384210526
1882	26	STANDING	time	gravity	accelerometer	NA	NA	mean	Y	152	-0.228237655953947
1883	26	STANDING	time	gravity	accelerometer	NA	NA	mean	Z	152	-0.00438298267388158
1884	26	STANDING	time	gravity	accelerometer	NA	NA	std	X	152	-0.987548563486842
1885	26	STANDING	time	gravity	accelerometer	NA	NA	std	Y	152	-0.96469760506579
1886	26	STANDING	time	gravity	accelerometer	NA	NA	std	Z	152	-0.947139370657895
1887	26	STANDING	time	gravity	accelerometer	NA	magnitude	mean	NA	152	-0.939455403618421
1888	26	STANDING	time	gravity	accelerometer	NA	magnitude	std	NA	152	-0.932936223223684
1889	26	STANDING	freq	NA	gyroscope	NA	NA	mean	X	152	-0.923433791447368
1890	26	STANDING	freq	NA	gyroscope	NA	NA	mean	Y	152	-0.943161337236842
1891	26	STANDING	freq	NA	gyroscope	NA	NA	mean	Z	152	-0.943384895131579
1892	26	STANDING	freq	NA	gyroscope	NA	NA	std	X	152	-0.929692978355263
1893	26	STANDING	freq	NA	gyroscope	NA	NA	std	Y	152	-0.936549101776316
1894	26	STANDING	freq	NA	gyroscope	NA	NA	std	Z	152	-0.946332895197368
1895	26	STANDING	freq	NA	gyroscope	NA	magnitude	mean	NA	152	-0.925241890460526
1896	26	STANDING	freq	NA	gyroscope	NA	magnitude	std	NA	152	-0.906439635
1897	26	STANDING	freq	NA	gyroscope	jerk	magnitude	mean	NA	152	-0.957281583552631
1898	26	STANDING	freq	NA	gyroscope	jerk	magnitude	std	NA	152	-0.95557501618421
1899	26	STANDING	freq	body	accelerometer	NA	NA	mean	X	152	-0.9741880625
1900	26	STANDING	freq	body	accelerometer	NA	NA	mean	Y	152	-0.926884968947368
1901	26	STANDING	freq	body	accelerometer	NA	NA	mean	Z	152	-0.944563574802632
1902	26	STANDING	freq	body	accelerometer	NA	NA	std	X	152	-0.980203151710526
1903	26	STANDING	freq	body	accelerometer	NA	NA	std	Y	152	-0.908107098289474
1904	26	STANDING	freq	body	accelerometer	NA	NA	std	Z	152	-0.921615550921053
1905	26	STANDING	freq	body	accelerometer	NA	magnitude	mean	NA	152	-0.943467202697368
1906	26	STANDING	freq	body	accelerometer	NA	magnitude	std	NA	152	-0.937570700526316
1907	26	STANDING	freq	body	accelerometer	jerk	NA	mean	X	152	-0.971630784736842
1908	26	STANDING	freq	body	accelerometer	jerk	NA	mean	Y	152	-0.953550511513158
1909	26	STANDING	freq	body	accelerometer	jerk	NA	mean	Z	152	-0.964785174671053
1910	26	STANDING	freq	body	accelerometer	jerk	NA	std	X	152	-0.973482058223684
1911	26	STANDING	freq	body	accelerometer	jerk	NA	std	Y	152	-0.957032902302632
1912	26	STANDING	freq	body	accelerometer	jerk	NA	std	Z	152	-0.972862324736842
1913	26	STANDING	freq	body	accelerometer	jerk	magnitude	mean	NA	152	-0.958036284276316
1914	26	STANDING	freq	body	accelerometer	jerk	magnitude	std	NA	152	-0.95664166625
1915	26	WALKING	time	NA	gyroscope	NA	NA	mean	X	240	-0.0350368557779583
1916	26	WALKING	time	NA	gyroscope	NA	NA	mean	Y	240	-0.0729888725679167
1917	26	WALKING	time	NA	gyroscope	NA	NA	mean	Z	240	0.08329593037625
1918	26	WALKING	time	NA	gyroscope	NA	NA	std	X	240	-0.504532501875
1919	26	WALKING	time	NA	gyroscope	NA	NA	std	Y	240	-0.326178991719375
1920	26	WALKING	time	NA	gyroscope	NA	NA	std	Z	240	-0.386023405958333
1921	26	WALKING	time	NA	gyroscope	NA	magnitude	mean	NA	240	-0.3028643417125
1922	26	WALKING	time	NA	gyroscope	NA	magnitude	std	NA	240	-0.383837162541667
1923	26	WALKING	time	NA	gyroscope	jerk	NA	mean	X	240	-0.09318176435625
1924	26	WALKING	time	NA	gyroscope	jerk	NA	mean	Y	240	-0.0416574184766667
1925	26	WALKING	time	NA	gyroscope	jerk	NA	mean	Z	240	-0.0490611442747083
1926	26	WALKING	time	NA	gyroscope	jerk	NA	std	X	240	-0.303842438391667
1927	26	WALKING	time	NA	gyroscope	jerk	NA	std	Y	240	-0.479221432458333
1928	26	WALKING	time	NA	gyroscope	jerk	NA	std	Z	240	-0.369128303167083
1929	26	WALKING	time	NA	gyroscope	jerk	magnitude	mean	NA	240	-0.417955548845833
1930	26	WALKING	time	NA	gyroscope	jerk	magnitude	std	NA	240	-0.4468132830625
1931	26	WALKING	time	body	accelerometer	NA	NA	mean	X	240	0.277940755541667
1932	26	WALKING	time	body	accelerometer	NA	NA	mean	Y	240	-0.0172840874598875
1933	26	WALKING	time	body	accelerometer	NA	NA	mean	Z	240	-0.111109192479167
1934	26	WALKING	time	body	accelerometer	NA	NA	std	X	240	-0.307548233279167
1935	26	WALKING	time	body	accelerometer	NA	NA	std	Y	240	0.0598219474945833
1936	26	WALKING	time	body	accelerometer	NA	NA	std	Z	240	-0.378197837291667
1937	26	WALKING	time	body	accelerometer	NA	magnitude	mean	NA	240	-0.178550608670833
1938	26	WALKING	time	body	accelerometer	NA	magnitude	std	NA	240	-0.292540936979167
1939	26	WALKING	time	body	accelerometer	jerk	NA	mean	X	240	0.0778382208617917
1940	26	WALKING	time	body	accelerometer	jerk	NA	mean	Y	240	0.00440674514166667
1941	26	WALKING	time	body	accelerometer	jerk	NA	mean	Z	240	-0.00447268645345833
1942	26	WALKING	time	body	accelerometer	jerk	NA	std	X	240	-0.196847798751667
1943	26	WALKING	time	body	accelerometer	jerk	NA	std	Y	240	-0.0125754804883333
1944	26	WALKING	time	body	accelerometer	jerk	NA	std	Z	240	-0.56312092975
1945	26	WALKING	time	body	accelerometer	jerk	magnitude	mean	NA	240	-0.223805746220833
1946	26	WALKING	time	body	accelerometer	jerk	magnitude	std	NA	240	-0.140653369395167
1947	26	WALKING	time	gravity	accelerometer	NA	NA	mean	X	240	0.947857129541667
1948	26	WALKING	time	gravity	accelerometer	NA	NA	mean	Y	240	-0.224491128445833
1949	26	WALKING	time	gravity	accelerometer	NA	NA	mean	Z	240	-0.0566208335629167
1950	26	WALKING	time	gravity	accelerometer	NA	NA	std	X	240	-0.977607831208333
1951	26	WALKING	time	gravity	accelerometer	NA	NA	std	Y	240	-0.965723615708333
1952	26	WALKING	time	gravity	accelerometer	NA	NA	std	Z	240	-0.953993185375
1953	26	WALKING	time	gravity	accelerometer	NA	magnitude	mean	NA	240	-0.178550608670833
1954	26	WALKING	time	gravity	accelerometer	NA	magnitude	std	NA	240	-0.292540936979167
1955	26	WALKING	freq	NA	gyroscope	NA	NA	mean	X	240	-0.374444666375
1956	26	WALKING	freq	NA	gyroscope	NA	NA	mean	Y	240	-0.351447733755417
1957	26	WALKING	freq	NA	gyroscope	NA	NA	mean	Z	240	-0.293308202920833
1958	26	WALKING	freq	NA	gyroscope	NA	NA	std	X	240	-0.546640263125
1959	26	WALKING	freq	NA	gyroscope	NA	NA	std	Y	240	-0.316658785624583
1960	26	WALKING	freq	NA	gyroscope	NA	NA	std	Z	240	-0.476898528
1961	26	WALKING	freq	NA	gyroscope	NA	magnitude	mean	NA	240	-0.389084366015417
1962	26	WALKING	freq	NA	gyroscope	NA	magnitude	std	NA	240	-0.489140448958333
1963	26	WALKING	freq	NA	gyroscope	jerk	magnitude	mean	NA	240	-0.4683238556625
1964	26	WALKING	freq	NA	gyroscope	jerk	magnitude	std	NA	240	-0.460737946833333
1965	26	WALKING	freq	body	accelerometer	NA	NA	mean	X	240	-0.2493069704125
1966	26	WALKING	freq	body	accelerometer	NA	NA	mean	Y	240	0.026942611865
1967	26	WALKING	freq	body	accelerometer	NA	NA	mean	Z	240	-0.424406185125
1968	26	WALKING	freq	body	accelerometer	NA	NA	std	X	240	-0.333317126795833
1969	26	WALKING	freq	body	accelerometer	NA	NA	std	Y	240	0.00888923683583333
1970	26	WALKING	freq	body	accelerometer	NA	NA	std	Z	240	-0.402732219841667
1971	26	WALKING	freq	body	accelerometer	NA	magnitude	mean	NA	240	-0.223649968636667
1972	26	WALKING	freq	body	accelerometer	NA	magnitude	std	NA	240	-0.445567634916667
1973	26	WALKING	freq	body	accelerometer	jerk	NA	mean	X	240	-0.240427016500875
1974	26	WALKING	freq	body	accelerometer	jerk	NA	mean	Y	240	-0.108026406870338
1975	26	WALKING	freq	body	accelerometer	jerk	NA	mean	Z	240	-0.5373493595
1976	26	WALKING	freq	body	accelerometer	jerk	NA	std	X	240	-0.22346008853875
1977	26	WALKING	freq	body	accelerometer	jerk	NA	std	Y	240	0.0248137400300417
1978	26	WALKING	freq	body	accelerometer	jerk	NA	std	Z	240	-0.587324694291667
1979	26	WALKING	freq	body	accelerometer	jerk	magnitude	mean	NA	240	-0.140533284345667
1980	26	WALKING	freq	body	accelerometer	jerk	magnitude	std	NA	240	-0.148370025448583
1981	27	WALKING	time	NA	gyroscope	NA	NA	mean	X	376	-0.0176163062786702
1982	27	WALKING	time	NA	gyroscope	NA	NA	mean	Y	376	-0.0764776560803191
1983	27	WALKING	time	NA	gyroscope	NA	NA	mean	Z	376	0.0704699833415279
1984	27	WALKING	time	NA	gyroscope	NA	NA	std	X	376	-0.485682244242021
1985	27	WALKING	time	NA	gyroscope	NA	NA	std	Y	376	-0.330097846240027
1986	27	WALKING	time	NA	gyroscope	NA	NA	std	Z	376	-0.32095482974867
1987	27	WALKING	time	NA	gyroscope	NA	magnitude	mean	NA	376	-0.272358742706543
1988	27	WALKING	time	NA	gyroscope	NA	magnitude	std	NA	376	-0.383039940075798
1989	27	WALKING	time	NA	gyroscope	jerk	NA	mean	X	376	-0.106234279234715
1990	27	WALKING	time	NA	gyroscope	jerk	NA	mean	Y	376	-0.0434280576242819
1991	27	WALKING	time	NA	gyroscope	jerk	NA	mean	Z	376	-0.0461818015515425
1992	27	WALKING	time	NA	gyroscope	jerk	NA	std	X	376	-0.399626404931383
1993	27	WALKING	time	NA	gyroscope	jerk	NA	std	Y	376	-0.523160993143883
1994	27	WALKING	time	NA	gyroscope	jerk	NA	std	Z	376	-0.476641813777394
1995	27	WALKING	time	NA	gyroscope	jerk	magnitude	mean	NA	376	-0.478027282731383
1996	27	WALKING	time	NA	gyroscope	jerk	magnitude	std	NA	376	-0.52313933335133
1997	27	WALKING	time	body	accelerometer	NA	NA	mean	X	376	0.274316406196809
1998	27	WALKING	time	body	accelerometer	NA	NA	mean	Y	376	-0.0186990607240691
1999	27	WALKING	time	body	accelerometer	NA	NA	mean	Z	376	-0.107685140824468
2000	27	WALKING	time	body	accelerometer	NA	NA	std	X	376	-0.345225588026862
2001	27	WALKING	time	body	accelerometer	NA	NA	std	Y	376	0.0124306528315426
2002	27	WALKING	time	body	accelerometer	NA	NA	std	Z	376	-0.206449292571729
2003	27	WALKING	time	body	accelerometer	NA	magnitude	mean	NA	376	-0.157057545481117
2004	27	WALKING	time	body	accelerometer	NA	magnitude	std	NA	376	-0.34310943261383
2005	27	WALKING	time	body	accelerometer	jerk	NA	mean	X	376	0.0790986080714628
2006	27	WALKING	time	body	accelerometer	jerk	NA	mean	Y	376	0.0116498938021277
2007	27	WALKING	time	body	accelerometer	jerk	NA	mean	Z	376	-1.87205604015953e-05
2008	27	WALKING	time	body	accelerometer	jerk	NA	std	X	376	-0.366204164376064
2009	27	WALKING	time	body	accelerometer	jerk	NA	std	Y	376	-0.120265752157686
2010	27	WALKING	time	body	accelerometer	jerk	NA	std	Z	376	-0.47540898043
2011	27	WALKING	time	body	accelerometer	jerk	magnitude	mean	NA	376	-0.282134322949681
2012	27	WALKING	time	body	accelerometer	jerk	magnitude	std	NA	376	-0.280038168390426
2013	27	WALKING	time	gravity	accelerometer	NA	NA	mean	X	376	0.915323503085106
2014	27	WALKING	time	gravity	accelerometer	NA	NA	mean	Y	376	-0.190533368218085
2015	27	WALKING	time	gravity	accelerometer	NA	NA	mean	Z	376	-0.123058069701798
2016	27	WALKING	time	gravity	accelerometer	NA	NA	std	X	376	-0.978710065239362
2017	27	WALKING	time	gravity	accelerometer	NA	NA	std	Y	376	-0.965505241037234
2018	27	WALKING	time	gravity	accelerometer	NA	NA	std	Z	376	-0.95657715662234
2019	27	WALKING	time	gravity	accelerometer	NA	magnitude	mean	NA	376	-0.157057545481117
2020	27	WALKING	time	gravity	accelerometer	NA	magnitude	std	NA	376	-0.34310943261383
2021	27	WALKING	freq	NA	gyroscope	NA	NA	mean	X	376	-0.375585490774468
2022	27	WALKING	freq	NA	gyroscope	NA	NA	mean	Y	376	-0.387072494143351
2023	27	WALKING	freq	NA	gyroscope	NA	NA	mean	Z	376	-0.32514210436117
2024	27	WALKING	freq	NA	gyroscope	NA	NA	std	X	376	-0.522876923359043
2025	27	WALKING	freq	NA	gyroscope	NA	NA	std	Y	376	-0.306967109855824
2026	27	WALKING	freq	NA	gyroscope	NA	NA	std	Z	376	-0.384686948013298
2027	27	WALKING	freq	NA	gyroscope	NA	magnitude	mean	NA	376	-0.416835856884761
2028	27	WALKING	freq	NA	gyroscope	NA	magnitude	std	NA	376	-0.469654344125
2029	27	WALKING	freq	NA	gyroscope	jerk	magnitude	mean	NA	376	-0.530356967524388
2030	27	WALKING	freq	NA	gyroscope	jerk	magnitude	std	NA	376	-0.549471225510106
2031	27	WALKING	freq	body	accelerometer	NA	NA	mean	X	376	-0.350471546047872
2032	27	WALKING	freq	body	accelerometer	NA	NA	mean	Y	376	-0.0265562081981117
2033	27	WALKING	freq	body	accelerometer	NA	NA	mean	Z	376	-0.309417977739707
2034	27	WALKING	freq	body	accelerometer	NA	NA	std	X	376	-0.344675470971277
2035	27	WALKING	freq	body	accelerometer	NA	NA	std	Y	376	-0.03263114666875
2036	27	WALKING	freq	body	accelerometer	NA	NA	std	Z	376	-0.215775326225
2037	27	WALKING	freq	body	accelerometer	NA	magnitude	mean	NA	376	-0.298435108377793
2038	27	WALKING	freq	body	accelerometer	NA	magnitude	std	NA	376	-0.472759212234043
2039	27	WALKING	freq	body	accelerometer	jerk	NA	mean	X	376	-0.399618432143617
2040	27	WALKING	freq	body	accelerometer	jerk	NA	mean	Y	376	-0.187887321744335
2041	27	WALKING	freq	body	accelerometer	jerk	NA	mean	Z	376	-0.442361985278936
2042	27	WALKING	freq	body	accelerometer	jerk	NA	std	X	376	-0.388595475366755
2043	27	WALKING	freq	body	accelerometer	jerk	NA	std	Y	376	-0.106727721845904
2044	27	WALKING	freq	body	accelerometer	jerk	NA	std	Z	376	-0.507435160153723
2045	27	WALKING	freq	body	accelerometer	jerk	magnitude	mean	NA	376	-0.267377334003245
2046	27	WALKING	freq	body	accelerometer	jerk	magnitude	std	NA	376	-0.303334254851064
2047	28	WALKING	time	NA	gyroscope	NA	NA	mean	X	382	-0.0255382712731152
2048	28	WALKING	time	NA	gyroscope	NA	NA	mean	Y	382	-0.0769960405538482
2049	28	WALKING	time	NA	gyroscope	NA	NA	mean	Z	382	0.0884443865344241
2050	28	WALKING	time	NA	gyroscope	NA	NA	std	X	382	-0.376164904479581
2051	28	WALKING	time	NA	gyroscope	NA	NA	std	Y	382	-0.343242903106571
2052	28	WALKING	time	NA	gyroscope	NA	NA	std	Z	382	-0.309820458359948
2053	28	WALKING	time	NA	gyroscope	NA	magnitude	mean	NA	382	-0.222046012481126
2054	28	WALKING	time	NA	gyroscope	NA	magnitude	std	NA	382	-0.309294984069634
2055	28	WALKING	time	NA	gyroscope	jerk	NA	mean	X	382	-0.0932815564824607
2056	28	WALKING	time	NA	gyroscope	jerk	NA	mean	Y	382	-0.041989161750733
2057	28	WALKING	time	NA	gyroscope	jerk	NA	mean	Z	382	-0.0608206758569372
2058	28	WALKING	time	NA	gyroscope	jerk	NA	std	X	382	-0.30891863882644
2059	28	WALKING	time	NA	gyroscope	jerk	NA	std	Y	382	-0.448885358983246
2060	28	WALKING	time	NA	gyroscope	jerk	NA	std	Z	382	-0.438338626436911
2061	28	WALKING	time	NA	gyroscope	jerk	magnitude	mean	NA	382	-0.401223834248168
2062	28	WALKING	time	NA	gyroscope	jerk	magnitude	std	NA	382	-0.419766343173927
2063	28	WALKING	time	body	accelerometer	NA	NA	mean	X	382	0.276856644319372
2064	28	WALKING	time	body	accelerometer	NA	NA	mean	Y	382	-0.0178115633793534
2065	28	WALKING	time	body	accelerometer	NA	NA	mean	Z	382	-0.110867647
2066	28	WALKING	time	body	accelerometer	NA	NA	std	X	382	-0.294823145142435
2067	28	WALKING	time	body	accelerometer	NA	NA	std	Y	382	-0.0288498762823822
2068	28	WALKING	time	body	accelerometer	NA	NA	std	Z	382	-0.20916767743089
2069	28	WALKING	time	body	accelerometer	NA	magnitude	mean	NA	382	-0.142369196376492
2070	28	WALKING	time	body	accelerometer	NA	magnitude	std	NA	382	-0.326484759130236
2071	28	WALKING	time	body	accelerometer	jerk	NA	mean	X	382	0.0783624562127749
2072	28	WALKING	time	body	accelerometer	jerk	NA	mean	Y	382	0.0151737189839045
2073	28	WALKING	time	body	accelerometer	jerk	NA	mean	Z	382	-0.00505104939992147
2074	28	WALKING	time	body	accelerometer	jerk	NA	std	X	382	-0.233293012033901
2075	28	WALKING	time	body	accelerometer	jerk	NA	std	Y	382	-0.106677332238725
2076	28	WALKING	time	body	accelerometer	jerk	NA	std	Z	382	-0.373145274893456
2077	28	WALKING	time	body	accelerometer	jerk	magnitude	mean	NA	382	-0.193152502330628
2078	28	WALKING	time	body	accelerometer	jerk	magnitude	std	NA	382	-0.173208698311518
2079	28	WALKING	time	gravity	accelerometer	NA	NA	mean	X	382	0.929468760863874
2080	28	WALKING	time	gravity	accelerometer	NA	NA	mean	Y	382	-0.207345157829843
2081	28	WALKING	time	gravity	accelerometer	NA	NA	mean	Z	382	-0.0275928897172775
2082	28	WALKING	time	gravity	accelerometer	NA	NA	std	X	382	-0.975541161020942
2083	28	WALKING	time	gravity	accelerometer	NA	NA	std	Y	382	-0.965064571701571
2084	28	WALKING	time	gravity	accelerometer	NA	NA	std	Z	382	-0.950117304947644
2085	28	WALKING	time	gravity	accelerometer	NA	magnitude	mean	NA	382	-0.142369196376492
2086	28	WALKING	time	gravity	accelerometer	NA	magnitude	std	NA	382	-0.326484759130236
2087	28	WALKING	freq	NA	gyroscope	NA	NA	mean	X	382	-0.245235643722513
2088	28	WALKING	freq	NA	gyroscope	NA	NA	mean	Y	382	-0.366345623112565
2089	28	WALKING	freq	NA	gyroscope	NA	NA	mean	Z	382	-0.276090386677277
2090	28	WALKING	freq	NA	gyroscope	NA	NA	std	X	382	-0.420255962161675
2091	28	WALKING	freq	NA	gyroscope	NA	NA	std	Y	382	-0.336309917134817
2092	28	WALKING	freq	NA	gyroscope	NA	NA	std	Z	382	-0.385288436212042
2093	28	WALKING	freq	NA	gyroscope	NA	magnitude	mean	NA	382	-0.34051723658822
2094	28	WALKING	freq	NA	gyroscope	NA	magnitude	std	NA	382	-0.41001385495
2095	28	WALKING	freq	NA	gyroscope	jerk	magnitude	mean	NA	382	-0.455558463620942
2096	28	WALKING	freq	NA	gyroscope	jerk	magnitude	std	NA	382	-0.417468732817278
2097	28	WALKING	freq	body	accelerometer	NA	NA	mean	X	382	-0.295323195568586
2098	28	WALKING	freq	body	accelerometer	NA	NA	mean	Y	382	-0.0436982938321204
2099	28	WALKING	freq	body	accelerometer	NA	NA	mean	Z	382	-0.268877257129843
2100	28	WALKING	freq	body	accelerometer	NA	NA	std	X	382	-0.295807230178534
2101	28	WALKING	freq	body	accelerometer	NA	NA	std	Y	382	-0.0842380753431937
2102	28	WALKING	freq	body	accelerometer	NA	NA	std	Z	382	-0.241356889476702
2103	28	WALKING	freq	body	accelerometer	NA	magnitude	mean	NA	382	-0.258301538091806
2104	28	WALKING	freq	body	accelerometer	NA	magnitude	std	NA	382	-0.474784425955497
2105	28	WALKING	freq	body	accelerometer	jerk	NA	mean	X	382	-0.288921378971623
2106	28	WALKING	freq	body	accelerometer	jerk	NA	mean	Y	382	-0.169936600392147
2107	28	WALKING	freq	body	accelerometer	jerk	NA	mean	Z	382	-0.359058239505236
2108	28	WALKING	freq	body	accelerometer	jerk	NA	std	X	382	-0.244503920535864
2109	28	WALKING	freq	body	accelerometer	jerk	NA	std	Y	382	-0.0980224017669424
2110	28	WALKING	freq	body	accelerometer	jerk	NA	std	Z	382	-0.386997492651283
2111	28	WALKING	freq	body	accelerometer	jerk	magnitude	mean	NA	382	-0.192908613512094
2112	28	WALKING	freq	body	accelerometer	jerk	magnitude	std	NA	382	-0.156850201019372
2113	29	WALKING	time	NA	gyroscope	NA	NA	mean	X	344	-0.0535918031084593
2114	29	WALKING	time	NA	gyroscope	NA	NA	mean	Y	344	-0.0546078477324709
2115	29	WALKING	time	NA	gyroscope	NA	NA	mean	Z	344	0.0942470354055232
2116	29	WALKING	time	NA	gyroscope	NA	NA	std	X	344	-0.523388681133721
2117	29	WALKING	time	NA	gyroscope	NA	NA	std	Y	344	-0.393575944820349
2118	29	WALKING	time	NA	gyroscope	NA	NA	std	Z	344	-0.371031290137791
2119	29	WALKING	time	NA	gyroscope	NA	magnitude	mean	NA	344	-0.320412338607878
2120	29	WALKING	time	NA	gyroscope	NA	magnitude	std	NA	344	-0.443677443093023
2121	29	WALKING	time	NA	gyroscope	jerk	NA	mean	X	344	-0.0933757737278692
2122	29	WALKING	time	NA	gyroscope	jerk	NA	mean	Y	344	-0.0510082000726744
2123	29	WALKING	time	NA	gyroscope	jerk	NA	mean	Z	344	-0.0530617063061628
2124	29	WALKING	time	NA	gyroscope	jerk	NA	std	X	344	-0.44472277880814
2125	29	WALKING	time	NA	gyroscope	jerk	NA	std	Y	344	-0.63027711752907
2126	29	WALKING	time	NA	gyroscope	jerk	NA	std	Z	344	-0.486431033982558
2127	29	WALKING	time	NA	gyroscope	jerk	magnitude	mean	NA	344	-0.551233811773256
2128	29	WALKING	time	NA	gyroscope	jerk	magnitude	std	NA	344	-0.605944849767442
2129	29	WALKING	time	body	accelerometer	NA	NA	mean	X	344	0.276850209796512
2130	29	WALKING	time	body	accelerometer	NA	NA	mean	Y	344	-0.0167040005377759
2131	29	WALKING	time	body	accelerometer	NA	NA	mean	Z	344	-0.106217047461337
2132	29	WALKING	time	body	accelerometer	NA	NA	std	X	344	-0.340817958348837
2133	29	WALKING	time	body	accelerometer	NA	NA	std	Y	344	-0.123005873487529
2134	29	WALKING	time	body	accelerometer	NA	NA	std	Z	344	-0.325526249947674
2135	29	WALKING	time	body	accelerometer	NA	magnitude	mean	NA	344	-0.220550784581105
2136	29	WALKING	time	body	accelerometer	NA	magnitude	std	NA	344	-0.396592494593023
2137	29	WALKING	time	body	accelerometer	jerk	NA	mean	X	344	0.0736402475547965
2138	29	WALKING	time	body	accelerometer	jerk	NA	mean	Y	344	0.0131799975988372
2139	29	WALKING	time	body	accelerometer	jerk	NA	mean	Z	344	-0.00394046694825581
2140	29	WALKING	time	body	accelerometer	jerk	NA	std	X	344	-0.30553778158343
2141	29	WALKING	time	body	accelerometer	jerk	NA	std	Y	344	-0.155697640726831
2142	29	WALKING	time	body	accelerometer	jerk	NA	std	Z	344	-0.544053802005814
2143	29	WALKING	time	body	accelerometer	jerk	magnitude	mean	NA	344	-0.296875583494186
2144	29	WALKING	time	body	accelerometer	jerk	magnitude	std	NA	344	-0.272671601263081
2145	29	WALKING	time	gravity	accelerometer	NA	NA	mean	X	344	0.948710173284884
2146	29	WALKING	time	gravity	accelerometer	NA	NA	mean	Y	344	-0.189856020915698
2147	29	WALKING	time	gravity	accelerometer	NA	NA	mean	Z	344	0.00917199147584302
2148	29	WALKING	time	gravity	accelerometer	NA	NA	std	X	344	-0.978598339389535
2149	29	WALKING	time	gravity	accelerometer	NA	NA	std	Y	344	-0.971348599389535
2150	29	WALKING	time	gravity	accelerometer	NA	NA	std	Z	344	-0.954570040639535
2151	29	WALKING	time	gravity	accelerometer	NA	magnitude	mean	NA	344	-0.220550784581105
2152	29	WALKING	time	gravity	accelerometer	NA	magnitude	std	NA	344	-0.396592494593023
2153	29	WALKING	freq	NA	gyroscope	NA	NA	mean	X	344	-0.413292487296512
2154	29	WALKING	freq	NA	gyroscope	NA	NA	mean	Y	344	-0.464192241112238
2155	29	WALKING	freq	NA	gyroscope	NA	NA	mean	Z	344	-0.366737090468023
2156	29	WALKING	freq	NA	gyroscope	NA	NA	std	X	344	-0.560575592790698
2157	29	WALKING	freq	NA	gyroscope	NA	NA	std	Y	344	-0.360625525591279
2158	29	WALKING	freq	NA	gyroscope	NA	NA	std	Z	344	-0.431878949354651
2159	29	WALKING	freq	NA	gyroscope	NA	magnitude	mean	NA	344	-0.489496301630814
2160	29	WALKING	freq	NA	gyroscope	NA	magnitude	std	NA	344	-0.509919989854651
2161	29	WALKING	freq	NA	gyroscope	jerk	magnitude	mean	NA	344	-0.615304079244186
2162	29	WALKING	freq	NA	gyroscope	jerk	magnitude	std	NA	344	-0.622241370116279
2163	29	WALKING	freq	body	accelerometer	NA	NA	mean	X	344	-0.311662500303343
2164	29	WALKING	freq	body	accelerometer	NA	NA	mean	Y	344	-0.113546653939535
2165	29	WALKING	freq	body	accelerometer	NA	NA	mean	Z	344	-0.390551181889535
2166	29	WALKING	freq	body	accelerometer	NA	NA	std	X	344	-0.35355421506686
2167	29	WALKING	freq	body	accelerometer	NA	NA	std	Y	344	-0.185311209139855
2168	29	WALKING	freq	body	accelerometer	NA	NA	std	Z	344	-0.344798380343023
2169	29	WALKING	freq	body	accelerometer	NA	magnitude	mean	NA	344	-0.340152404514535
2170	29	WALKING	freq	body	accelerometer	NA	magnitude	std	NA	344	-0.526340933226744
2171	29	WALKING	freq	body	accelerometer	jerk	NA	mean	X	344	-0.330992182764535
2172	29	WALKING	freq	body	accelerometer	jerk	NA	mean	Y	344	-0.20808437129564
2173	29	WALKING	freq	body	accelerometer	jerk	NA	mean	Z	344	-0.505466552296512
2174	29	WALKING	freq	body	accelerometer	jerk	NA	std	X	344	-0.342321866296512
2175	29	WALKING	freq	body	accelerometer	jerk	NA	std	Y	344	-0.156841944414244
2176	29	WALKING	freq	body	accelerometer	jerk	NA	std	Z	344	-0.581641125406977
2177	29	WALKING	freq	body	accelerometer	jerk	magnitude	mean	NA	344	-0.263156465508721
2178	29	WALKING	freq	body	accelerometer	jerk	magnitude	std	NA	344	-0.290735350672965
2179	30	WALKING	time	NA	gyroscope	NA	NA	mean	X	380	-0.0436239751371053
2180	30	WALKING	time	NA	gyroscope	NA	NA	mean	Y	380	-0.06597578916635
2181	30	WALKING	time	NA	gyroscope	NA	NA	mean	Z	380	0.094794758547921
2182	30	WALKING	time	NA	gyroscope	NA	NA	std	X	380	-0.478285076942105
2183	30	WALKING	time	NA	gyroscope	NA	NA	std	Y	380	-0.342664969129474
2184	30	WALKING	time	NA	gyroscope	NA	NA	std	Z	380	-0.324993943326316
2185	30	WALKING	time	NA	gyroscope	NA	magnitude	mean	NA	380	-0.271530354383684
2186	30	WALKING	time	NA	gyroscope	NA	magnitude	std	NA	380	-0.399914486049737
2187	30	WALKING	time	NA	gyroscope	jerk	NA	mean	X	380	-0.0850612970689474
2188	30	WALKING	time	NA	gyroscope	jerk	NA	mean	Y	380	-0.0443061057502632
2189	30	WALKING	time	NA	gyroscope	jerk	NA	mean	Z	380	-0.0588773152118158
2190	30	WALKING	time	NA	gyroscope	jerk	NA	std	X	380	-0.404421016076316
2191	30	WALKING	time	NA	gyroscope	jerk	NA	std	Y	380	-0.480839005476316
2192	30	WALKING	time	NA	gyroscope	jerk	NA	std	Z	380	-0.441799923341053
2193	30	WALKING	time	NA	gyroscope	jerk	magnitude	mean	NA	380	-0.447529752297368
2194	30	WALKING	time	NA	gyroscope	jerk	magnitude	std	NA	380	-0.490191831126842
2195	30	WALKING	time	body	accelerometer	NA	NA	mean	X	380	0.276335891973684
2196	30	WALKING	time	body	accelerometer	NA	NA	mean	Y	380	-0.0187009090478395
2197	30	WALKING	time	body	accelerometer	NA	NA	mean	Z	380	-0.109074582863158
2198	30	WALKING	time	body	accelerometer	NA	NA	std	X	380	-0.285098774002105
2199	30	WALKING	time	body	accelerometer	NA	NA	std	Y	380	-0.0165956668144737
2200	30	WALKING	time	body	accelerometer	NA	NA	std	Z	380	-0.29320031125121
2201	30	WALKING	time	body	accelerometer	NA	magnitude	mean	NA	380	-0.1500755222619
2202	30	WALKING	time	body	accelerometer	NA	magnitude	std	NA	380	-0.319074724948947
2203	30	WALKING	time	body	accelerometer	jerk	NA	mean	X	380	0.0747913508313947
2204	30	WALKING	time	body	accelerometer	jerk	NA	mean	Y	380	0.0106458018341316
2205	30	WALKING	time	body	accelerometer	jerk	NA	mean	Z	380	0.00097769008263158
2206	30	WALKING	time	body	accelerometer	jerk	NA	std	X	380	-0.213450137601316
2207	30	WALKING	time	body	accelerometer	jerk	NA	std	Y	380	-0.0922638796806053
2208	30	WALKING	time	body	accelerometer	jerk	NA	std	Z	380	-0.477611946447368
2209	30	WALKING	time	body	accelerometer	jerk	magnitude	mean	NA	380	-0.210723645703445
2210	30	WALKING	time	body	accelerometer	jerk	magnitude	std	NA	380	-0.1853929908765
2211	30	WALKING	time	gravity	accelerometer	NA	NA	mean	X	380	0.939459955921053
2212	30	WALKING	time	gravity	accelerometer	NA	NA	mean	Y	380	-0.180805009708947
2213	30	WALKING	time	gravity	accelerometer	NA	NA	mean	Z	380	-0.0669545052978421
2214	30	WALKING	time	gravity	accelerometer	NA	NA	std	X	380	-0.977717305263158
2215	30	WALKING	time	gravity	accelerometer	NA	NA	std	Y	380	-0.96685855618421
2216	30	WALKING	time	gravity	accelerometer	NA	NA	std	Z	380	-0.9575492825
2217	30	WALKING	time	gravity	accelerometer	NA	magnitude	mean	NA	380	-0.1500755222619
2218	30	WALKING	time	gravity	accelerometer	NA	magnitude	std	NA	380	-0.319074724948947
2219	30	WALKING	freq	NA	gyroscope	NA	NA	mean	X	380	-0.349276991261579
2220	30	WALKING	freq	NA	gyroscope	NA	NA	mean	Y	380	-0.366541844897553
2221	30	WALKING	freq	NA	gyroscope	NA	NA	mean	Z	380	-0.290126481585789
2222	30	WALKING	freq	NA	gyroscope	NA	NA	std	X	380	-0.520507140305263
2223	30	WALKING	freq	NA	gyroscope	NA	NA	std	Y	380	-0.336037985540263
2224	30	WALKING	freq	NA	gyroscope	NA	NA	std	Z	380	-0.400409293168421
2225	30	WALKING	freq	NA	gyroscope	NA	magnitude	mean	NA	380	-0.410581921279526
2226	30	WALKING	freq	NA	gyroscope	NA	magnitude	std	NA	380	-0.49978704455
2227	30	WALKING	freq	NA	gyroscope	jerk	magnitude	mean	NA	380	-0.500579274253737
2228	30	WALKING	freq	NA	gyroscope	jerk	magnitude	std	NA	380	-0.513428239758421
2229	30	WALKING	freq	body	accelerometer	NA	NA	mean	X	380	-0.266662762036842
2230	30	WALKING	freq	body	accelerometer	NA	NA	mean	Y	380	-0.0358853684264211
2231	30	WALKING	freq	body	accelerometer	NA	NA	mean	Z	380	-0.351027051097368
2232	30	WALKING	freq	body	accelerometer	NA	NA	std	X	380	-0.293968803559737
2233	30	WALKING	freq	body	accelerometer	NA	NA	std	Y	380	-0.0707563822573684
2234	30	WALKING	freq	body	accelerometer	NA	NA	std	Z	380	-0.319080575017053
2235	30	WALKING	freq	body	accelerometer	NA	magnitude	mean	NA	380	-0.244578515273421
2236	30	WALKING	freq	body	accelerometer	NA	magnitude	std	NA	380	-0.472213934315789
2237	30	WALKING	freq	body	accelerometer	jerk	NA	mean	X	380	-0.272560939190526
2238	30	WALKING	freq	body	accelerometer	jerk	NA	mean	Y	380	-0.158819809365211
2239	30	WALKING	freq	body	accelerometer	jerk	NA	mean	Z	380	-0.448177398823684
2240	30	WALKING	freq	body	accelerometer	jerk	NA	std	X	380	-0.223311263052526
2241	30	WALKING	freq	body	accelerometer	jerk	NA	std	Y	380	-0.0813301820847895
2242	30	WALKING	freq	body	accelerometer	jerk	NA	std	Z	380	-0.505861948131579
2243	30	WALKING	freq	body	accelerometer	jerk	magnitude	mean	NA	380	-0.187250945607211
2244	30	WALKING	freq	body	accelerometer	jerk	magnitude	std	NA	380	-0.189562044920474
2245	30	WALKING_DOWNSTAIRS	time	NA	gyroscope	NA	NA	mean	X	3	-0.194401461666667
2246	30	WALKING_DOWNSTAIRS	time	NA	gyroscope	NA	NA	mean	Y	3	-0.00383230833333333
2247	30	WALKING_DOWNSTAIRS	time	NA	gyroscope	NA	NA	mean	Z	3	0.113649387
2248	30	WALKING_DOWNSTAIRS	time	NA	gyroscope	NA	NA	std	X	3	-0.583624003333333
2249	30	WALKING_DOWNSTAIRS	time	NA	gyroscope	NA	NA	std	Y	3	-0.202153626666667
2250	30	WALKING_DOWNSTAIRS	time	NA	gyroscope	NA	NA	std	Z	3	-0.29755746
2251	30	WALKING_DOWNSTAIRS	time	NA	gyroscope	NA	magnitude	mean	NA	3	-0.244341765666667
2252	30	WALKING_DOWNSTAIRS	time	NA	gyroscope	NA	magnitude	std	NA	3	-0.260195952666667
2253	30	WALKING_DOWNSTAIRS	time	NA	gyroscope	jerk	NA	mean	X	3	-0.165659411
2254	30	WALKING_DOWNSTAIRS	time	NA	gyroscope	jerk	NA	mean	Y	3	-0.0866290353333333
2255	30	WALKING_DOWNSTAIRS	time	NA	gyroscope	jerk	NA	mean	Z	3	-0.0266739163333333
2256	30	WALKING_DOWNSTAIRS	time	NA	gyroscope	jerk	NA	std	X	3	-0.493352473333333
2257	30	WALKING_DOWNSTAIRS	time	NA	gyroscope	jerk	NA	std	Y	3	-0.274312363333333
2258	30	WALKING_DOWNSTAIRS	time	NA	gyroscope	jerk	NA	std	Z	3	-0.361998166666667
2259	30	WALKING_DOWNSTAIRS	time	NA	gyroscope	jerk	magnitude	mean	NA	3	-0.366805936666667
2260	30	WALKING_DOWNSTAIRS	time	NA	gyroscope	jerk	magnitude	std	NA	3	-0.2704279
2261	30	WALKING_DOWNSTAIRS	time	body	accelerometer	NA	NA	mean	X	3	0.313907386666667
2262	30	WALKING_DOWNSTAIRS	time	body	accelerometer	NA	NA	mean	Y	3	-0.00172809846666667
2263	30	WALKING_DOWNSTAIRS	time	body	accelerometer	NA	NA	mean	Z	3	-0.105977696333333
2264	30	WALKING_DOWNSTAIRS	time	body	accelerometer	NA	NA	std	X	3	-0.102265368666667
2265	30	WALKING_DOWNSTAIRS	time	body	accelerometer	NA	NA	std	Y	3	-0.112367235666667
2266	30	WALKING_DOWNSTAIRS	time	body	accelerometer	NA	NA	std	Z	3	-0.3576261
2267	30	WALKING_DOWNSTAIRS	time	body	accelerometer	NA	magnitude	mean	NA	3	-0.102602425333333
2268	30	WALKING_DOWNSTAIRS	time	body	accelerometer	NA	magnitude	std	NA	3	-0.117515345666667
2269	30	WALKING_DOWNSTAIRS	time	body	accelerometer	jerk	NA	mean	X	3	0.0830330606666667
2270	30	WALKING_DOWNSTAIRS	time	body	accelerometer	jerk	NA	mean	Y	3	0.0326242486666667
2271	30	WALKING_DOWNSTAIRS	time	body	accelerometer	jerk	NA	mean	Z	3	-0.061312966
2272	30	WALKING_DOWNSTAIRS	time	body	accelerometer	jerk	NA	std	X	3	-0.13679807
2273	30	WALKING_DOWNSTAIRS	time	body	accelerometer	jerk	NA	std	Y	3	-0.160816564666667
2274	30	WALKING_DOWNSTAIRS	time	body	accelerometer	jerk	NA	std	Z	3	-0.494057673333333
2275	30	WALKING_DOWNSTAIRS	time	body	accelerometer	jerk	magnitude	mean	NA	3	-0.221433346666667
2276	30	WALKING_DOWNSTAIRS	time	body	accelerometer	jerk	magnitude	std	NA	3	-0.132542336666667
2277	30	WALKING_DOWNSTAIRS	time	gravity	accelerometer	NA	NA	mean	X	3	0.945848963333333
2278	30	WALKING_DOWNSTAIRS	time	gravity	accelerometer	NA	NA	mean	Y	3	-0.233647423333333
2279	30	WALKING_DOWNSTAIRS	time	gravity	accelerometer	NA	NA	mean	Z	3	-0.0189333176666667
2280	30	WALKING_DOWNSTAIRS	time	gravity	accelerometer	NA	NA	std	X	3	-0.954101646666667
2281	30	WALKING_DOWNSTAIRS	time	gravity	accelerometer	NA	NA	std	Y	3	-0.940512746666667
2282	30	WALKING_DOWNSTAIRS	time	gravity	accelerometer	NA	NA	std	Z	3	-0.939972103333333
2283	30	WALKING_DOWNSTAIRS	time	gravity	accelerometer	NA	magnitude	mean	NA	3	-0.102602425333333
2284	30	WALKING_DOWNSTAIRS	time	gravity	accelerometer	NA	magnitude	std	NA	3	-0.117515345666667
2285	30	WALKING_DOWNSTAIRS	freq	NA	gyroscope	NA	NA	mean	X	3	-0.471576616666667
2286	30	WALKING_DOWNSTAIRS	freq	NA	gyroscope	NA	NA	mean	Y	3	-0.129521127333333
2287	30	WALKING_DOWNSTAIRS	freq	NA	gyroscope	NA	NA	mean	Z	3	-0.198484116666667
2288	30	WALKING_DOWNSTAIRS	freq	NA	gyroscope	NA	NA	std	X	3	-0.621086486666667
2289	30	WALKING_DOWNSTAIRS	freq	NA	gyroscope	NA	NA	std	Y	3	-0.25919043
2290	30	WALKING_DOWNSTAIRS	freq	NA	gyroscope	NA	NA	std	Z	3	-0.398216456666667
2291	30	WALKING_DOWNSTAIRS	freq	NA	gyroscope	NA	magnitude	mean	NA	3	-0.200800377333333
2292	30	WALKING_DOWNSTAIRS	freq	NA	gyroscope	NA	magnitude	std	NA	3	-0.443068396666667
2293	30	WALKING_DOWNSTAIRS	freq	NA	gyroscope	jerk	magnitude	mean	NA	3	-0.26160205
2294	30	WALKING_DOWNSTAIRS	freq	NA	gyroscope	jerk	magnitude	std	NA	3	-0.334370383333333
2295	30	WALKING_DOWNSTAIRS	freq	body	accelerometer	NA	NA	mean	X	3	-0.189567463333333
2296	30	WALKING_DOWNSTAIRS	freq	body	accelerometer	NA	NA	mean	Y	3	-0.108506816033333
2297	30	WALKING_DOWNSTAIRS	freq	body	accelerometer	NA	NA	mean	Z	3	-0.40839522
2298	30	WALKING_DOWNSTAIRS	freq	body	accelerometer	NA	NA	std	X	3	-0.0702759306666667
2299	30	WALKING_DOWNSTAIRS	freq	body	accelerometer	NA	NA	std	Y	3	-0.170624936666667
2300	30	WALKING_DOWNSTAIRS	freq	body	accelerometer	NA	NA	std	Z	3	-0.382385673333333
2301	30	WALKING_DOWNSTAIRS	freq	body	accelerometer	NA	magnitude	mean	NA	3	-0.075882789
2302	30	WALKING_DOWNSTAIRS	freq	body	accelerometer	NA	magnitude	std	NA	3	-0.279130916666667
2303	30	WALKING_DOWNSTAIRS	freq	body	accelerometer	jerk	NA	mean	X	3	-0.166103713333333
2304	30	WALKING_DOWNSTAIRS	freq	body	accelerometer	jerk	NA	mean	Y	3	-0.19169529
2305	30	WALKING_DOWNSTAIRS	freq	body	accelerometer	jerk	NA	mean	Z	3	-0.447165506666667
2306	30	WALKING_DOWNSTAIRS	freq	body	accelerometer	jerk	NA	std	X	3	-0.18289866
2307	30	WALKING_DOWNSTAIRS	freq	body	accelerometer	jerk	NA	std	Y	3	-0.183828476
2308	30	WALKING_DOWNSTAIRS	freq	body	accelerometer	jerk	NA	std	Z	3	-0.539139613333333
2309	30	WALKING_DOWNSTAIRS	freq	body	accelerometer	jerk	magnitude	mean	NA	3	-0.0844795796666667
2310	30	WALKING_DOWNSTAIRS	freq	body	accelerometer	jerk	magnitude	std	NA	3	-0.2023736
